

Microchip Technology PIC LITE Macro Assembler V1.41 build -162212810 
                                                                                               Sun May 21 00:48:16 2017

Microchip Technology Omniscient Code Generator v1.41 (Free mode) build 201701250102
     1                           	processor	16F1827
     2                           	opt	pw 120
     3                           	opt	lm
     4                           	psect	idataBANK1,global,class=CODE,delta=2
     5                           	psect	idataBANK2,global,class=CODE,delta=2
     6                           	psect	stringtext,global,class=STRCODE,delta=2
     7                           	psect	cinit,global,class=CODE,merge=1,delta=2
     8                           	psect	bssCOMMON,global,class=COMMON,space=1,delta=1
     9                           	psect	bssBANK0,global,class=BANK0,space=1,delta=1
    10                           	psect	dataBANK1,global,class=BANK1,space=1,delta=1
    11                           	psect	dataBANK2,global,class=BANK2,space=1,delta=1
    12                           	psect	inittext,global,class=CODE,delta=2
    13                           	psect	clrtext,global,class=CODE,delta=2
    14                           	psect	cstackCOMMON,global,class=COMMON,space=1,delta=1
    15                           	psect	cstackBANK0,global,class=BANK0,space=1,delta=1
    16                           	psect	maintext,global,class=CODE,merge=1,split=1,delta=2
    17                           	psect	text1,local,class=CODE,merge=1,delta=2
    18                           	psect	text2,local,class=CODE,merge=1,delta=2
    19                           	psect	text3,local,class=CODE,merge=1,delta=2
    20                           	psect	text4,local,class=CODE,merge=1,delta=2
    21                           	psect	text5,local,class=CODE,merge=1,delta=2
    22                           	psect	text6,local,class=CODE,merge=1,delta=2
    23                           	psect	text7,local,class=CODE,merge=1,delta=2
    24                           	psect	text8,local,class=CODE,merge=1,delta=2
    25                           	psect	text9,local,class=CODE,merge=1,delta=2
    26                           	psect	text10,local,class=CODE,merge=1,delta=2
    27                           	psect	text11,local,class=CODE,merge=1,delta=2
    28                           	psect	text12,local,class=CODE,merge=1,delta=2
    29                           	psect	text13,local,class=CODE,merge=1,delta=2
    30                           	psect	intentry,global,class=CODE,delta=2
    31                           	psect	text15,local,class=CODE,merge=1,delta=2
    32                           	psect	text16,local,class=CODE,merge=1,delta=2
    33                           	psect	text17,local,class=CODE,merge=1,delta=2
    34                           	psect	text18,local,class=CODE,merge=1,delta=2
    35                           	psect	text19,local,class=CODE,merge=1,delta=2
    36                           	psect	text20,local,class=CODE,merge=1,delta=2
    37                           	psect	text21,local,class=CODE,merge=1,delta=2
    38                           	psect	text22,local,class=CODE,merge=1,delta=2
    39                           	psect	text23,local,class=CODE,merge=1,delta=2
    40                           	psect	text24,local,class=CODE,merge=1,delta=2
    41                           	psect	text25,local,class=CODE,merge=1,delta=2
    42                           	dabs	1,0x7E,2
    43  0000                     
    44                           ; Version 1.41
    45                           ; Generated 25/01/2017 GMT
    46                           ; 
    47                           ; Copyright © 2017, Microchip Technology Inc. and its subsidiaries ("Microchip")
    48                           ; All rights reserved.
    49                           ; 
    50                           ; This software is developed by Microchip Technology Inc. and its subsidiaries ("Microch
      +                          ip").
    51                           ; 
    52                           ; Redistribution and use in source and binary forms, with or without modification, are
    53                           ; permitted provided that the following conditions are met:
    54                           ; 
    55                           ;     1. Redistributions of source code must retain the above copyright notice, this lis
      +                          t of
    56                           ;        conditions and the following disclaimer.
    57                           ; 
    58                           ;     2. Redistributions in binary form must reproduce the above copyright notice, this 
      +                          list
    59                           ;        of conditions and the following disclaimer in the documentation and/or other
    60                           ;        materials provided with the distribution.
    61                           ; 
    62                           ;     3. Microchip's name may not be used to endorse or promote products derived from th
      +                          is
    63                           ;        software without specific prior written permission.
    64                           ; 
    65                           ; THIS SOFTWARE IS PROVIDED BY MICROCHIP "AS IS" AND ANY EXPRESS OR IMPLIED WARRANTIES,
    66                           ; INCLUDING, BUT NOT LIMITED TO, THE IMPLIED WARRANTIES OF MERCHANTABILITY AND FITNESS F
      +                          OR
    67                           ; PURPOSE ARE DISCLAIMED.  IN NO EVENT SHALL MICROCHIP BE LIABLE FOR ANY DIRECT, INDIREC
      +                          T,
    68                           ; INCIDENTAL, SPECIAL, EXEMPLARY, OR CONSEQUENTIAL DAMAGES (INCLUDING BUT NOT LIMITED TO
    69                           ; PROCUREMENT OF SUBSTITUTE GOODS OR SERVICES; LOSS OF USE, DATA OR PROFITS; OR BUSINESS
    70                           ; INTERRUPTION) HOWSOEVER CAUSED AND ON ANY THEORY OF LIABILITY, WHETHER IN CONTRACT, ST
      +                          RICT
    71                           ; LIABILITY, OR TORT (INCLUDING NEGLIGENCE OR OTHERWISE) ARISING IN ANY WAY OUT OF THE U
      +                          SE OF
    72                           ; THIS SOFTWARE, EVEN IF ADVISED OF THE POSSIBILITY OF SUCH DAMAGE.
    73                           ; 
    74                           ; 
    75                           ; Code-generator required, PIC16F1827 Definitions
    76                           ; 
    77                           ; SFR Addresses
    78  0000                     	;# 
    79  0001                     	;# 
    80  0002                     	;# 
    81  0003                     	;# 
    82  0004                     	;# 
    83  0005                     	;# 
    84  0006                     	;# 
    85  0007                     	;# 
    86  0008                     	;# 
    87  0009                     	;# 
    88  000A                     	;# 
    89  000B                     	;# 
    90  000C                     	;# 
    91  000D                     	;# 
    92  0011                     	;# 
    93  0012                     	;# 
    94  0013                     	;# 
    95  0014                     	;# 
    96  0015                     	;# 
    97  0016                     	;# 
    98  0016                     	;# 
    99  0017                     	;# 
   100  0018                     	;# 
   101  0019                     	;# 
   102  001A                     	;# 
   103  001B                     	;# 
   104  001C                     	;# 
   105  001E                     	;# 
   106  001F                     	;# 
   107  008C                     	;# 
   108  008D                     	;# 
   109  0091                     	;# 
   110  0092                     	;# 
   111  0093                     	;# 
   112  0094                     	;# 
   113  0095                     	;# 
   114  0096                     	;# 
   115  0097                     	;# 
   116  0098                     	;# 
   117  0099                     	;# 
   118  009A                     	;# 
   119  009B                     	;# 
   120  009B                     	;# 
   121  009C                     	;# 
   122  009D                     	;# 
   123  009E                     	;# 
   124  010C                     	;# 
   125  010D                     	;# 
   126  0111                     	;# 
   127  0112                     	;# 
   128  0113                     	;# 
   129  0114                     	;# 
   130  0115                     	;# 
   131  0116                     	;# 
   132  0117                     	;# 
   133  0118                     	;# 
   134  0119                     	;# 
   135  011A                     	;# 
   136  011B                     	;# 
   137  011D                     	;# 
   138  011E                     	;# 
   139  018C                     	;# 
   140  018D                     	;# 
   141  0191                     	;# 
   142  0191                     	;# 
   143  0192                     	;# 
   144  0193                     	;# 
   145  0193                     	;# 
   146  0193                     	;# 
   147  0194                     	;# 
   148  0195                     	;# 
   149  0196                     	;# 
   150  0199                     	;# 
   151  019A                     	;# 
   152  019B                     	;# 
   153  019B                     	;# 
   154  019B                     	;# 
   155  019B                     	;# 
   156  019C                     	;# 
   157  019C                     	;# 
   158  019D                     	;# 
   159  019E                     	;# 
   160  019F                     	;# 
   161  020C                     	;# 
   162  020D                     	;# 
   163  0211                     	;# 
   164  0211                     	;# 
   165  0212                     	;# 
   166  0212                     	;# 
   167  0213                     	;# 
   168  0213                     	;# 
   169  0214                     	;# 
   170  0214                     	;# 
   171  0215                     	;# 
   172  0215                     	;# 
   173  0215                     	;# 
   174  0216                     	;# 
   175  0216                     	;# 
   176  0217                     	;# 
   177  0217                     	;# 
   178  0219                     	;# 
   179  021A                     	;# 
   180  021B                     	;# 
   181  021C                     	;# 
   182  021D                     	;# 
   183  021E                     	;# 
   184  021F                     	;# 
   185  0291                     	;# 
   186  0291                     	;# 
   187  0292                     	;# 
   188  0293                     	;# 
   189  0294                     	;# 
   190  0295                     	;# 
   191  0295                     	;# 
   192  0296                     	;# 
   193  0298                     	;# 
   194  0298                     	;# 
   195  0299                     	;# 
   196  029A                     	;# 
   197  029B                     	;# 
   198  029C                     	;# 
   199  029C                     	;# 
   200  029D                     	;# 
   201  029E                     	;# 
   202  029E                     	;# 
   203  0311                     	;# 
   204  0311                     	;# 
   205  0312                     	;# 
   206  0313                     	;# 
   207  0318                     	;# 
   208  0318                     	;# 
   209  0319                     	;# 
   210  031A                     	;# 
   211  0394                     	;# 
   212  0395                     	;# 
   213  0396                     	;# 
   214  039A                     	;# 
   215  039C                     	;# 
   216  039D                     	;# 
   217  039E                     	;# 
   218  039F                     	;# 
   219  0415                     	;# 
   220  0416                     	;# 
   221  0417                     	;# 
   222  041C                     	;# 
   223  041D                     	;# 
   224  041E                     	;# 
   225  0FE4                     	;# 
   226  0FE5                     	;# 
   227  0FE6                     	;# 
   228  0FE7                     	;# 
   229  0FE8                     	;# 
   230  0FE9                     	;# 
   231  0FEA                     	;# 
   232  0FEB                     	;# 
   233  0FED                     	;# 
   234  0FEE                     	;# 
   235  0FEF                     	;# 
   236  0000                     	;# 
   237  0001                     	;# 
   238  0002                     	;# 
   239  0003                     	;# 
   240  0004                     	;# 
   241  0005                     	;# 
   242  0006                     	;# 
   243  0007                     	;# 
   244  0008                     	;# 
   245  0009                     	;# 
   246  000A                     	;# 
   247  000B                     	;# 
   248  000C                     	;# 
   249  000D                     	;# 
   250  0011                     	;# 
   251  0012                     	;# 
   252  0013                     	;# 
   253  0014                     	;# 
   254  0015                     	;# 
   255  0016                     	;# 
   256  0016                     	;# 
   257  0017                     	;# 
   258  0018                     	;# 
   259  0019                     	;# 
   260  001A                     	;# 
   261  001B                     	;# 
   262  001C                     	;# 
   263  001E                     	;# 
   264  001F                     	;# 
   265  008C                     	;# 
   266  008D                     	;# 
   267  0091                     	;# 
   268  0092                     	;# 
   269  0093                     	;# 
   270  0094                     	;# 
   271  0095                     	;# 
   272  0096                     	;# 
   273  0097                     	;# 
   274  0098                     	;# 
   275  0099                     	;# 
   276  009A                     	;# 
   277  009B                     	;# 
   278  009B                     	;# 
   279  009C                     	;# 
   280  009D                     	;# 
   281  009E                     	;# 
   282  010C                     	;# 
   283  010D                     	;# 
   284  0111                     	;# 
   285  0112                     	;# 
   286  0113                     	;# 
   287  0114                     	;# 
   288  0115                     	;# 
   289  0116                     	;# 
   290  0117                     	;# 
   291  0118                     	;# 
   292  0119                     	;# 
   293  011A                     	;# 
   294  011B                     	;# 
   295  011D                     	;# 
   296  011E                     	;# 
   297  018C                     	;# 
   298  018D                     	;# 
   299  0191                     	;# 
   300  0191                     	;# 
   301  0192                     	;# 
   302  0193                     	;# 
   303  0193                     	;# 
   304  0193                     	;# 
   305  0194                     	;# 
   306  0195                     	;# 
   307  0196                     	;# 
   308  0199                     	;# 
   309  019A                     	;# 
   310  019B                     	;# 
   311  019B                     	;# 
   312  019B                     	;# 
   313  019B                     	;# 
   314  019C                     	;# 
   315  019C                     	;# 
   316  019D                     	;# 
   317  019E                     	;# 
   318  019F                     	;# 
   319  020C                     	;# 
   320  020D                     	;# 
   321  0211                     	;# 
   322  0211                     	;# 
   323  0212                     	;# 
   324  0212                     	;# 
   325  0213                     	;# 
   326  0213                     	;# 
   327  0214                     	;# 
   328  0214                     	;# 
   329  0215                     	;# 
   330  0215                     	;# 
   331  0215                     	;# 
   332  0216                     	;# 
   333  0216                     	;# 
   334  0217                     	;# 
   335  0217                     	;# 
   336  0219                     	;# 
   337  021A                     	;# 
   338  021B                     	;# 
   339  021C                     	;# 
   340  021D                     	;# 
   341  021E                     	;# 
   342  021F                     	;# 
   343  0291                     	;# 
   344  0291                     	;# 
   345  0292                     	;# 
   346  0293                     	;# 
   347  0294                     	;# 
   348  0295                     	;# 
   349  0295                     	;# 
   350  0296                     	;# 
   351  0298                     	;# 
   352  0298                     	;# 
   353  0299                     	;# 
   354  029A                     	;# 
   355  029B                     	;# 
   356  029C                     	;# 
   357  029C                     	;# 
   358  029D                     	;# 
   359  029E                     	;# 
   360  029E                     	;# 
   361  0311                     	;# 
   362  0311                     	;# 
   363  0312                     	;# 
   364  0313                     	;# 
   365  0318                     	;# 
   366  0318                     	;# 
   367  0319                     	;# 
   368  031A                     	;# 
   369  0394                     	;# 
   370  0395                     	;# 
   371  0396                     	;# 
   372  039A                     	;# 
   373  039C                     	;# 
   374  039D                     	;# 
   375  039E                     	;# 
   376  039F                     	;# 
   377  0415                     	;# 
   378  0416                     	;# 
   379  0417                     	;# 
   380  041C                     	;# 
   381  041D                     	;# 
   382  041E                     	;# 
   383  0FE4                     	;# 
   384  0FE5                     	;# 
   385  0FE6                     	;# 
   386  0FE7                     	;# 
   387  0FE8                     	;# 
   388  0FE9                     	;# 
   389  0FEA                     	;# 
   390  0FEB                     	;# 
   391  0FED                     	;# 
   392  0FEE                     	;# 
   393  0FEF                     	;# 
   394  0000                     	;# 
   395  0001                     	;# 
   396  0002                     	;# 
   397  0003                     	;# 
   398  0004                     	;# 
   399  0005                     	;# 
   400  0006                     	;# 
   401  0007                     	;# 
   402  0008                     	;# 
   403  0009                     	;# 
   404  000A                     	;# 
   405  000B                     	;# 
   406  000C                     	;# 
   407  000D                     	;# 
   408  0011                     	;# 
   409  0012                     	;# 
   410  0013                     	;# 
   411  0014                     	;# 
   412  0015                     	;# 
   413  0016                     	;# 
   414  0016                     	;# 
   415  0017                     	;# 
   416  0018                     	;# 
   417  0019                     	;# 
   418  001A                     	;# 
   419  001B                     	;# 
   420  001C                     	;# 
   421  001E                     	;# 
   422  001F                     	;# 
   423  008C                     	;# 
   424  008D                     	;# 
   425  0091                     	;# 
   426  0092                     	;# 
   427  0093                     	;# 
   428  0094                     	;# 
   429  0095                     	;# 
   430  0096                     	;# 
   431  0097                     	;# 
   432  0098                     	;# 
   433  0099                     	;# 
   434  009A                     	;# 
   435  009B                     	;# 
   436  009B                     	;# 
   437  009C                     	;# 
   438  009D                     	;# 
   439  009E                     	;# 
   440  010C                     	;# 
   441  010D                     	;# 
   442  0111                     	;# 
   443  0112                     	;# 
   444  0113                     	;# 
   445  0114                     	;# 
   446  0115                     	;# 
   447  0116                     	;# 
   448  0117                     	;# 
   449  0118                     	;# 
   450  0119                     	;# 
   451  011A                     	;# 
   452  011B                     	;# 
   453  011D                     	;# 
   454  011E                     	;# 
   455  018C                     	;# 
   456  018D                     	;# 
   457  0191                     	;# 
   458  0191                     	;# 
   459  0192                     	;# 
   460  0193                     	;# 
   461  0193                     	;# 
   462  0193                     	;# 
   463  0194                     	;# 
   464  0195                     	;# 
   465  0196                     	;# 
   466  0199                     	;# 
   467  019A                     	;# 
   468  019B                     	;# 
   469  019B                     	;# 
   470  019B                     	;# 
   471  019B                     	;# 
   472  019C                     	;# 
   473  019C                     	;# 
   474  019D                     	;# 
   475  019E                     	;# 
   476  019F                     	;# 
   477  020C                     	;# 
   478  020D                     	;# 
   479  0211                     	;# 
   480  0211                     	;# 
   481  0212                     	;# 
   482  0212                     	;# 
   483  0213                     	;# 
   484  0213                     	;# 
   485  0214                     	;# 
   486  0214                     	;# 
   487  0215                     	;# 
   488  0215                     	;# 
   489  0215                     	;# 
   490  0216                     	;# 
   491  0216                     	;# 
   492  0217                     	;# 
   493  0217                     	;# 
   494  0219                     	;# 
   495  021A                     	;# 
   496  021B                     	;# 
   497  021C                     	;# 
   498  021D                     	;# 
   499  021E                     	;# 
   500  021F                     	;# 
   501  0291                     	;# 
   502  0291                     	;# 
   503  0292                     	;# 
   504  0293                     	;# 
   505  0294                     	;# 
   506  0295                     	;# 
   507  0295                     	;# 
   508  0296                     	;# 
   509  0298                     	;# 
   510  0298                     	;# 
   511  0299                     	;# 
   512  029A                     	;# 
   513  029B                     	;# 
   514  029C                     	;# 
   515  029C                     	;# 
   516  029D                     	;# 
   517  029E                     	;# 
   518  029E                     	;# 
   519  0311                     	;# 
   520  0311                     	;# 
   521  0312                     	;# 
   522  0313                     	;# 
   523  0318                     	;# 
   524  0318                     	;# 
   525  0319                     	;# 
   526  031A                     	;# 
   527  0394                     	;# 
   528  0395                     	;# 
   529  0396                     	;# 
   530  039A                     	;# 
   531  039C                     	;# 
   532  039D                     	;# 
   533  039E                     	;# 
   534  039F                     	;# 
   535  0415                     	;# 
   536  0416                     	;# 
   537  0417                     	;# 
   538  041C                     	;# 
   539  041D                     	;# 
   540  041E                     	;# 
   541  0FE4                     	;# 
   542  0FE5                     	;# 
   543  0FE6                     	;# 
   544  0FE7                     	;# 
   545  0FE8                     	;# 
   546  0FE9                     	;# 
   547  0FEA                     	;# 
   548  0FEB                     	;# 
   549  0FED                     	;# 
   550  0FEE                     	;# 
   551  0FEF                     	;# 
   552  0000                     	;# 
   553  0001                     	;# 
   554  0002                     	;# 
   555  0003                     	;# 
   556  0004                     	;# 
   557  0005                     	;# 
   558  0006                     	;# 
   559  0007                     	;# 
   560  0008                     	;# 
   561  0009                     	;# 
   562  000A                     	;# 
   563  000B                     	;# 
   564  000C                     	;# 
   565  000D                     	;# 
   566  0011                     	;# 
   567  0012                     	;# 
   568  0013                     	;# 
   569  0014                     	;# 
   570  0015                     	;# 
   571  0016                     	;# 
   572  0016                     	;# 
   573  0017                     	;# 
   574  0018                     	;# 
   575  0019                     	;# 
   576  001A                     	;# 
   577  001B                     	;# 
   578  001C                     	;# 
   579  001E                     	;# 
   580  001F                     	;# 
   581  008C                     	;# 
   582  008D                     	;# 
   583  0091                     	;# 
   584  0092                     	;# 
   585  0093                     	;# 
   586  0094                     	;# 
   587  0095                     	;# 
   588  0096                     	;# 
   589  0097                     	;# 
   590  0098                     	;# 
   591  0099                     	;# 
   592  009A                     	;# 
   593  009B                     	;# 
   594  009B                     	;# 
   595  009C                     	;# 
   596  009D                     	;# 
   597  009E                     	;# 
   598  010C                     	;# 
   599  010D                     	;# 
   600  0111                     	;# 
   601  0112                     	;# 
   602  0113                     	;# 
   603  0114                     	;# 
   604  0115                     	;# 
   605  0116                     	;# 
   606  0117                     	;# 
   607  0118                     	;# 
   608  0119                     	;# 
   609  011A                     	;# 
   610  011B                     	;# 
   611  011D                     	;# 
   612  011E                     	;# 
   613  018C                     	;# 
   614  018D                     	;# 
   615  0191                     	;# 
   616  0191                     	;# 
   617  0192                     	;# 
   618  0193                     	;# 
   619  0193                     	;# 
   620  0193                     	;# 
   621  0194                     	;# 
   622  0195                     	;# 
   623  0196                     	;# 
   624  0199                     	;# 
   625  019A                     	;# 
   626  019B                     	;# 
   627  019B                     	;# 
   628  019B                     	;# 
   629  019B                     	;# 
   630  019C                     	;# 
   631  019C                     	;# 
   632  019D                     	;# 
   633  019E                     	;# 
   634  019F                     	;# 
   635  020C                     	;# 
   636  020D                     	;# 
   637  0211                     	;# 
   638  0211                     	;# 
   639  0212                     	;# 
   640  0212                     	;# 
   641  0213                     	;# 
   642  0213                     	;# 
   643  0214                     	;# 
   644  0214                     	;# 
   645  0215                     	;# 
   646  0215                     	;# 
   647  0215                     	;# 
   648  0216                     	;# 
   649  0216                     	;# 
   650  0217                     	;# 
   651  0217                     	;# 
   652  0219                     	;# 
   653  021A                     	;# 
   654  021B                     	;# 
   655  021C                     	;# 
   656  021D                     	;# 
   657  021E                     	;# 
   658  021F                     	;# 
   659  0291                     	;# 
   660  0291                     	;# 
   661  0292                     	;# 
   662  0293                     	;# 
   663  0294                     	;# 
   664  0295                     	;# 
   665  0295                     	;# 
   666  0296                     	;# 
   667  0298                     	;# 
   668  0298                     	;# 
   669  0299                     	;# 
   670  029A                     	;# 
   671  029B                     	;# 
   672  029C                     	;# 
   673  029C                     	;# 
   674  029D                     	;# 
   675  029E                     	;# 
   676  029E                     	;# 
   677  0311                     	;# 
   678  0311                     	;# 
   679  0312                     	;# 
   680  0313                     	;# 
   681  0318                     	;# 
   682  0318                     	;# 
   683  0319                     	;# 
   684  031A                     	;# 
   685  0394                     	;# 
   686  0395                     	;# 
   687  0396                     	;# 
   688  039A                     	;# 
   689  039C                     	;# 
   690  039D                     	;# 
   691  039E                     	;# 
   692  039F                     	;# 
   693  0415                     	;# 
   694  0416                     	;# 
   695  0417                     	;# 
   696  041C                     	;# 
   697  041D                     	;# 
   698  041E                     	;# 
   699  0FE4                     	;# 
   700  0FE5                     	;# 
   701  0FE6                     	;# 
   702  0FE7                     	;# 
   703  0FE8                     	;# 
   704  0FE9                     	;# 
   705  0FEA                     	;# 
   706  0FEB                     	;# 
   707  0FED                     	;# 
   708  0FEE                     	;# 
   709  0FEF                     	;# 
   710  0000                     	;# 
   711  0001                     	;# 
   712  0002                     	;# 
   713  0003                     	;# 
   714  0004                     	;# 
   715  0005                     	;# 
   716  0006                     	;# 
   717  0007                     	;# 
   718  0008                     	;# 
   719  0009                     	;# 
   720  000A                     	;# 
   721  000B                     	;# 
   722  000C                     	;# 
   723  000D                     	;# 
   724  0011                     	;# 
   725  0012                     	;# 
   726  0013                     	;# 
   727  0014                     	;# 
   728  0015                     	;# 
   729  0016                     	;# 
   730  0016                     	;# 
   731  0017                     	;# 
   732  0018                     	;# 
   733  0019                     	;# 
   734  001A                     	;# 
   735  001B                     	;# 
   736  001C                     	;# 
   737  001E                     	;# 
   738  001F                     	;# 
   739  008C                     	;# 
   740  008D                     	;# 
   741  0091                     	;# 
   742  0092                     	;# 
   743  0093                     	;# 
   744  0094                     	;# 
   745  0095                     	;# 
   746  0096                     	;# 
   747  0097                     	;# 
   748  0098                     	;# 
   749  0099                     	;# 
   750  009A                     	;# 
   751  009B                     	;# 
   752  009B                     	;# 
   753  009C                     	;# 
   754  009D                     	;# 
   755  009E                     	;# 
   756  010C                     	;# 
   757  010D                     	;# 
   758  0111                     	;# 
   759  0112                     	;# 
   760  0113                     	;# 
   761  0114                     	;# 
   762  0115                     	;# 
   763  0116                     	;# 
   764  0117                     	;# 
   765  0118                     	;# 
   766  0119                     	;# 
   767  011A                     	;# 
   768  011B                     	;# 
   769  011D                     	;# 
   770  011E                     	;# 
   771  018C                     	;# 
   772  018D                     	;# 
   773  0191                     	;# 
   774  0191                     	;# 
   775  0192                     	;# 
   776  0193                     	;# 
   777  0193                     	;# 
   778  0193                     	;# 
   779  0194                     	;# 
   780  0195                     	;# 
   781  0196                     	;# 
   782  0199                     	;# 
   783  019A                     	;# 
   784  019B                     	;# 
   785  019B                     	;# 
   786  019B                     	;# 
   787  019B                     	;# 
   788  019C                     	;# 
   789  019C                     	;# 
   790  019D                     	;# 
   791  019E                     	;# 
   792  019F                     	;# 
   793  020C                     	;# 
   794  020D                     	;# 
   795  0211                     	;# 
   796  0211                     	;# 
   797  0212                     	;# 
   798  0212                     	;# 
   799  0213                     	;# 
   800  0213                     	;# 
   801  0214                     	;# 
   802  0214                     	;# 
   803  0215                     	;# 
   804  0215                     	;# 
   805  0215                     	;# 
   806  0216                     	;# 
   807  0216                     	;# 
   808  0217                     	;# 
   809  0217                     	;# 
   810  0219                     	;# 
   811  021A                     	;# 
   812  021B                     	;# 
   813  021C                     	;# 
   814  021D                     	;# 
   815  021E                     	;# 
   816  021F                     	;# 
   817  0291                     	;# 
   818  0291                     	;# 
   819  0292                     	;# 
   820  0293                     	;# 
   821  0294                     	;# 
   822  0295                     	;# 
   823  0295                     	;# 
   824  0296                     	;# 
   825  0298                     	;# 
   826  0298                     	;# 
   827  0299                     	;# 
   828  029A                     	;# 
   829  029B                     	;# 
   830  029C                     	;# 
   831  029C                     	;# 
   832  029D                     	;# 
   833  029E                     	;# 
   834  029E                     	;# 
   835  0311                     	;# 
   836  0311                     	;# 
   837  0312                     	;# 
   838  0313                     	;# 
   839  0318                     	;# 
   840  0318                     	;# 
   841  0319                     	;# 
   842  031A                     	;# 
   843  0394                     	;# 
   844  0395                     	;# 
   845  0396                     	;# 
   846  039A                     	;# 
   847  039C                     	;# 
   848  039D                     	;# 
   849  039E                     	;# 
   850  039F                     	;# 
   851  0415                     	;# 
   852  0416                     	;# 
   853  0417                     	;# 
   854  041C                     	;# 
   855  041D                     	;# 
   856  041E                     	;# 
   857  0FE4                     	;# 
   858  0FE5                     	;# 
   859  0FE6                     	;# 
   860  0FE7                     	;# 
   861  0FE8                     	;# 
   862  0FE9                     	;# 
   863  0FEA                     	;# 
   864  0FEB                     	;# 
   865  0FED                     	;# 
   866  0FEE                     	;# 
   867  0FEF                     	;# 
   868  0000                     	;# 
   869  0001                     	;# 
   870  0002                     	;# 
   871  0003                     	;# 
   872  0004                     	;# 
   873  0005                     	;# 
   874  0006                     	;# 
   875  0007                     	;# 
   876  0008                     	;# 
   877  0009                     	;# 
   878  000A                     	;# 
   879  000B                     	;# 
   880  000C                     	;# 
   881  000D                     	;# 
   882  0011                     	;# 
   883  0012                     	;# 
   884  0013                     	;# 
   885  0014                     	;# 
   886  0015                     	;# 
   887  0016                     	;# 
   888  0016                     	;# 
   889  0017                     	;# 
   890  0018                     	;# 
   891  0019                     	;# 
   892  001A                     	;# 
   893  001B                     	;# 
   894  001C                     	;# 
   895  001E                     	;# 
   896  001F                     	;# 
   897  008C                     	;# 
   898  008D                     	;# 
   899  0091                     	;# 
   900  0092                     	;# 
   901  0093                     	;# 
   902  0094                     	;# 
   903  0095                     	;# 
   904  0096                     	;# 
   905  0097                     	;# 
   906  0098                     	;# 
   907  0099                     	;# 
   908  009A                     	;# 
   909  009B                     	;# 
   910  009B                     	;# 
   911  009C                     	;# 
   912  009D                     	;# 
   913  009E                     	;# 
   914  010C                     	;# 
   915  010D                     	;# 
   916  0111                     	;# 
   917  0112                     	;# 
   918  0113                     	;# 
   919  0114                     	;# 
   920  0115                     	;# 
   921  0116                     	;# 
   922  0117                     	;# 
   923  0118                     	;# 
   924  0119                     	;# 
   925  011A                     	;# 
   926  011B                     	;# 
   927  011D                     	;# 
   928  011E                     	;# 
   929  018C                     	;# 
   930  018D                     	;# 
   931  0191                     	;# 
   932  0191                     	;# 
   933  0192                     	;# 
   934  0193                     	;# 
   935  0193                     	;# 
   936  0193                     	;# 
   937  0194                     	;# 
   938  0195                     	;# 
   939  0196                     	;# 
   940  0199                     	;# 
   941  019A                     	;# 
   942  019B                     	;# 
   943  019B                     	;# 
   944  019B                     	;# 
   945  019B                     	;# 
   946  019C                     	;# 
   947  019C                     	;# 
   948  019D                     	;# 
   949  019E                     	;# 
   950  019F                     	;# 
   951  020C                     	;# 
   952  020D                     	;# 
   953  0211                     	;# 
   954  0211                     	;# 
   955  0212                     	;# 
   956  0212                     	;# 
   957  0213                     	;# 
   958  0213                     	;# 
   959  0214                     	;# 
   960  0214                     	;# 
   961  0215                     	;# 
   962  0215                     	;# 
   963  0215                     	;# 
   964  0216                     	;# 
   965  0216                     	;# 
   966  0217                     	;# 
   967  0217                     	;# 
   968  0219                     	;# 
   969  021A                     	;# 
   970  021B                     	;# 
   971  021C                     	;# 
   972  021D                     	;# 
   973  021E                     	;# 
   974  021F                     	;# 
   975  0291                     	;# 
   976  0291                     	;# 
   977  0292                     	;# 
   978  0293                     	;# 
   979  0294                     	;# 
   980  0295                     	;# 
   981  0295                     	;# 
   982  0296                     	;# 
   983  0298                     	;# 
   984  0298                     	;# 
   985  0299                     	;# 
   986  029A                     	;# 
   987  029B                     	;# 
   988  029C                     	;# 
   989  029C                     	;# 
   990  029D                     	;# 
   991  029E                     	;# 
   992  029E                     	;# 
   993  0311                     	;# 
   994  0311                     	;# 
   995  0312                     	;# 
   996  0313                     	;# 
   997  0318                     	;# 
   998  0318                     	;# 
   999  0319                     	;# 
  1000  031A                     	;# 
  1001  0394                     	;# 
  1002  0395                     	;# 
  1003  0396                     	;# 
  1004  039A                     	;# 
  1005  039C                     	;# 
  1006  039D                     	;# 
  1007  039E                     	;# 
  1008  039F                     	;# 
  1009  0415                     	;# 
  1010  0416                     	;# 
  1011  0417                     	;# 
  1012  041C                     	;# 
  1013  041D                     	;# 
  1014  041E                     	;# 
  1015  0FE4                     	;# 
  1016  0FE5                     	;# 
  1017  0FE6                     	;# 
  1018  0FE7                     	;# 
  1019  0FE8                     	;# 
  1020  0FE9                     	;# 
  1021  0FEA                     	;# 
  1022  0FEB                     	;# 
  1023  0FED                     	;# 
  1024  0FEE                     	;# 
  1025  0FEF                     	;# 
  1026  0000                     	;# 
  1027  0001                     	;# 
  1028  0002                     	;# 
  1029  0003                     	;# 
  1030  0004                     	;# 
  1031  0005                     	;# 
  1032  0006                     	;# 
  1033  0007                     	;# 
  1034  0008                     	;# 
  1035  0009                     	;# 
  1036  000A                     	;# 
  1037  000B                     	;# 
  1038  000C                     	;# 
  1039  000D                     	;# 
  1040  0011                     	;# 
  1041  0012                     	;# 
  1042  0013                     	;# 
  1043  0014                     	;# 
  1044  0015                     	;# 
  1045  0016                     	;# 
  1046  0016                     	;# 
  1047  0017                     	;# 
  1048  0018                     	;# 
  1049  0019                     	;# 
  1050  001A                     	;# 
  1051  001B                     	;# 
  1052  001C                     	;# 
  1053  001E                     	;# 
  1054  001F                     	;# 
  1055  008C                     	;# 
  1056  008D                     	;# 
  1057  0091                     	;# 
  1058  0092                     	;# 
  1059  0093                     	;# 
  1060  0094                     	;# 
  1061  0095                     	;# 
  1062  0096                     	;# 
  1063  0097                     	;# 
  1064  0098                     	;# 
  1065  0099                     	;# 
  1066  009A                     	;# 
  1067  009B                     	;# 
  1068  009B                     	;# 
  1069  009C                     	;# 
  1070  009D                     	;# 
  1071  009E                     	;# 
  1072  010C                     	;# 
  1073  010D                     	;# 
  1074  0111                     	;# 
  1075  0112                     	;# 
  1076  0113                     	;# 
  1077  0114                     	;# 
  1078  0115                     	;# 
  1079  0116                     	;# 
  1080  0117                     	;# 
  1081  0118                     	;# 
  1082  0119                     	;# 
  1083  011A                     	;# 
  1084  011B                     	;# 
  1085  011D                     	;# 
  1086  011E                     	;# 
  1087  018C                     	;# 
  1088  018D                     	;# 
  1089  0191                     	;# 
  1090  0191                     	;# 
  1091  0192                     	;# 
  1092  0193                     	;# 
  1093  0193                     	;# 
  1094  0193                     	;# 
  1095  0194                     	;# 
  1096  0195                     	;# 
  1097  0196                     	;# 
  1098  0199                     	;# 
  1099  019A                     	;# 
  1100  019B                     	;# 
  1101  019B                     	;# 
  1102  019B                     	;# 
  1103  019B                     	;# 
  1104  019C                     	;# 
  1105  019C                     	;# 
  1106  019D                     	;# 
  1107  019E                     	;# 
  1108  019F                     	;# 
  1109  020C                     	;# 
  1110  020D                     	;# 
  1111  0211                     	;# 
  1112  0211                     	;# 
  1113  0212                     	;# 
  1114  0212                     	;# 
  1115  0213                     	;# 
  1116  0213                     	;# 
  1117  0214                     	;# 
  1118  0214                     	;# 
  1119  0215                     	;# 
  1120  0215                     	;# 
  1121  0215                     	;# 
  1122  0216                     	;# 
  1123  0216                     	;# 
  1124  0217                     	;# 
  1125  0217                     	;# 
  1126  0219                     	;# 
  1127  021A                     	;# 
  1128  021B                     	;# 
  1129  021C                     	;# 
  1130  021D                     	;# 
  1131  021E                     	;# 
  1132  021F                     	;# 
  1133  0291                     	;# 
  1134  0291                     	;# 
  1135  0292                     	;# 
  1136  0293                     	;# 
  1137  0294                     	;# 
  1138  0295                     	;# 
  1139  0295                     	;# 
  1140  0296                     	;# 
  1141  0298                     	;# 
  1142  0298                     	;# 
  1143  0299                     	;# 
  1144  029A                     	;# 
  1145  029B                     	;# 
  1146  029C                     	;# 
  1147  029C                     	;# 
  1148  029D                     	;# 
  1149  029E                     	;# 
  1150  029E                     	;# 
  1151  0311                     	;# 
  1152  0311                     	;# 
  1153  0312                     	;# 
  1154  0313                     	;# 
  1155  0318                     	;# 
  1156  0318                     	;# 
  1157  0319                     	;# 
  1158  031A                     	;# 
  1159  0394                     	;# 
  1160  0395                     	;# 
  1161  0396                     	;# 
  1162  039A                     	;# 
  1163  039C                     	;# 
  1164  039D                     	;# 
  1165  039E                     	;# 
  1166  039F                     	;# 
  1167  0415                     	;# 
  1168  0416                     	;# 
  1169  0417                     	;# 
  1170  041C                     	;# 
  1171  041D                     	;# 
  1172  041E                     	;# 
  1173  0FE4                     	;# 
  1174  0FE5                     	;# 
  1175  0FE6                     	;# 
  1176  0FE7                     	;# 
  1177  0FE8                     	;# 
  1178  0FE9                     	;# 
  1179  0FEA                     	;# 
  1180  0FEB                     	;# 
  1181  0FED                     	;# 
  1182  0FEE                     	;# 
  1183  0FEF                     	;# 
  1184  0000                     	;# 
  1185  0001                     	;# 
  1186  0002                     	;# 
  1187  0003                     	;# 
  1188  0004                     	;# 
  1189  0005                     	;# 
  1190  0006                     	;# 
  1191  0007                     	;# 
  1192  0008                     	;# 
  1193  0009                     	;# 
  1194  000A                     	;# 
  1195  000B                     	;# 
  1196  000C                     	;# 
  1197  000D                     	;# 
  1198  0011                     	;# 
  1199  0012                     	;# 
  1200  0013                     	;# 
  1201  0014                     	;# 
  1202  0015                     	;# 
  1203  0016                     	;# 
  1204  0016                     	;# 
  1205  0017                     	;# 
  1206  0018                     	;# 
  1207  0019                     	;# 
  1208  001A                     	;# 
  1209  001B                     	;# 
  1210  001C                     	;# 
  1211  001E                     	;# 
  1212  001F                     	;# 
  1213  008C                     	;# 
  1214  008D                     	;# 
  1215  0091                     	;# 
  1216  0092                     	;# 
  1217  0093                     	;# 
  1218  0094                     	;# 
  1219  0095                     	;# 
  1220  0096                     	;# 
  1221  0097                     	;# 
  1222  0098                     	;# 
  1223  0099                     	;# 
  1224  009A                     	;# 
  1225  009B                     	;# 
  1226  009B                     	;# 
  1227  009C                     	;# 
  1228  009D                     	;# 
  1229  009E                     	;# 
  1230  010C                     	;# 
  1231  010D                     	;# 
  1232  0111                     	;# 
  1233  0112                     	;# 
  1234  0113                     	;# 
  1235  0114                     	;# 
  1236  0115                     	;# 
  1237  0116                     	;# 
  1238  0117                     	;# 
  1239  0118                     	;# 
  1240  0119                     	;# 
  1241  011A                     	;# 
  1242  011B                     	;# 
  1243  011D                     	;# 
  1244  011E                     	;# 
  1245  018C                     	;# 
  1246  018D                     	;# 
  1247  0191                     	;# 
  1248  0191                     	;# 
  1249  0192                     	;# 
  1250  0193                     	;# 
  1251  0193                     	;# 
  1252  0193                     	;# 
  1253  0194                     	;# 
  1254  0195                     	;# 
  1255  0196                     	;# 
  1256  0199                     	;# 
  1257  019A                     	;# 
  1258  019B                     	;# 
  1259  019B                     	;# 
  1260  019B                     	;# 
  1261  019B                     	;# 
  1262  019C                     	;# 
  1263  019C                     	;# 
  1264  019D                     	;# 
  1265  019E                     	;# 
  1266  019F                     	;# 
  1267  020C                     	;# 
  1268  020D                     	;# 
  1269  0211                     	;# 
  1270  0211                     	;# 
  1271  0212                     	;# 
  1272  0212                     	;# 
  1273  0213                     	;# 
  1274  0213                     	;# 
  1275  0214                     	;# 
  1276  0214                     	;# 
  1277  0215                     	;# 
  1278  0215                     	;# 
  1279  0215                     	;# 
  1280  0216                     	;# 
  1281  0216                     	;# 
  1282  0217                     	;# 
  1283  0217                     	;# 
  1284  0219                     	;# 
  1285  021A                     	;# 
  1286  021B                     	;# 
  1287  021C                     	;# 
  1288  021D                     	;# 
  1289  021E                     	;# 
  1290  021F                     	;# 
  1291  0291                     	;# 
  1292  0291                     	;# 
  1293  0292                     	;# 
  1294  0293                     	;# 
  1295  0294                     	;# 
  1296  0295                     	;# 
  1297  0295                     	;# 
  1298  0296                     	;# 
  1299  0298                     	;# 
  1300  0298                     	;# 
  1301  0299                     	;# 
  1302  029A                     	;# 
  1303  029B                     	;# 
  1304  029C                     	;# 
  1305  029C                     	;# 
  1306  029D                     	;# 
  1307  029E                     	;# 
  1308  029E                     	;# 
  1309  0311                     	;# 
  1310  0311                     	;# 
  1311  0312                     	;# 
  1312  0313                     	;# 
  1313  0318                     	;# 
  1314  0318                     	;# 
  1315  0319                     	;# 
  1316  031A                     	;# 
  1317  0394                     	;# 
  1318  0395                     	;# 
  1319  0396                     	;# 
  1320  039A                     	;# 
  1321  039C                     	;# 
  1322  039D                     	;# 
  1323  039E                     	;# 
  1324  039F                     	;# 
  1325  0415                     	;# 
  1326  0416                     	;# 
  1327  0417                     	;# 
  1328  041C                     	;# 
  1329  041D                     	;# 
  1330  041E                     	;# 
  1331  0FE4                     	;# 
  1332  0FE5                     	;# 
  1333  0FE6                     	;# 
  1334  0FE7                     	;# 
  1335  0FE8                     	;# 
  1336  0FE9                     	;# 
  1337  0FEA                     	;# 
  1338  0FEB                     	;# 
  1339  0FED                     	;# 
  1340  0FEE                     	;# 
  1341  0FEF                     	;# 
  1342  0000                     	;# 
  1343  0001                     	;# 
  1344  0002                     	;# 
  1345  0003                     	;# 
  1346  0004                     	;# 
  1347  0005                     	;# 
  1348  0006                     	;# 
  1349  0007                     	;# 
  1350  0008                     	;# 
  1351  0009                     	;# 
  1352  000A                     	;# 
  1353  000B                     	;# 
  1354  000C                     	;# 
  1355  000D                     	;# 
  1356  0011                     	;# 
  1357  0012                     	;# 
  1358  0013                     	;# 
  1359  0014                     	;# 
  1360  0015                     	;# 
  1361  0016                     	;# 
  1362  0016                     	;# 
  1363  0017                     	;# 
  1364  0018                     	;# 
  1365  0019                     	;# 
  1366  001A                     	;# 
  1367  001B                     	;# 
  1368  001C                     	;# 
  1369  001E                     	;# 
  1370  001F                     	;# 
  1371  008C                     	;# 
  1372  008D                     	;# 
  1373  0091                     	;# 
  1374  0092                     	;# 
  1375  0093                     	;# 
  1376  0094                     	;# 
  1377  0095                     	;# 
  1378  0096                     	;# 
  1379  0097                     	;# 
  1380  0098                     	;# 
  1381  0099                     	;# 
  1382  009A                     	;# 
  1383  009B                     	;# 
  1384  009B                     	;# 
  1385  009C                     	;# 
  1386  009D                     	;# 
  1387  009E                     	;# 
  1388  010C                     	;# 
  1389  010D                     	;# 
  1390  0111                     	;# 
  1391  0112                     	;# 
  1392  0113                     	;# 
  1393  0114                     	;# 
  1394  0115                     	;# 
  1395  0116                     	;# 
  1396  0117                     	;# 
  1397  0118                     	;# 
  1398  0119                     	;# 
  1399  011A                     	;# 
  1400  011B                     	;# 
  1401  011D                     	;# 
  1402  011E                     	;# 
  1403  018C                     	;# 
  1404  018D                     	;# 
  1405  0191                     	;# 
  1406  0191                     	;# 
  1407  0192                     	;# 
  1408  0193                     	;# 
  1409  0193                     	;# 
  1410  0193                     	;# 
  1411  0194                     	;# 
  1412  0195                     	;# 
  1413  0196                     	;# 
  1414  0199                     	;# 
  1415  019A                     	;# 
  1416  019B                     	;# 
  1417  019B                     	;# 
  1418  019B                     	;# 
  1419  019B                     	;# 
  1420  019C                     	;# 
  1421  019C                     	;# 
  1422  019D                     	;# 
  1423  019E                     	;# 
  1424  019F                     	;# 
  1425  020C                     	;# 
  1426  020D                     	;# 
  1427  0211                     	;# 
  1428  0211                     	;# 
  1429  0212                     	;# 
  1430  0212                     	;# 
  1431  0213                     	;# 
  1432  0213                     	;# 
  1433  0214                     	;# 
  1434  0214                     	;# 
  1435  0215                     	;# 
  1436  0215                     	;# 
  1437  0215                     	;# 
  1438  0216                     	;# 
  1439  0216                     	;# 
  1440  0217                     	;# 
  1441  0217                     	;# 
  1442  0219                     	;# 
  1443  021A                     	;# 
  1444  021B                     	;# 
  1445  021C                     	;# 
  1446  021D                     	;# 
  1447  021E                     	;# 
  1448  021F                     	;# 
  1449  0291                     	;# 
  1450  0291                     	;# 
  1451  0292                     	;# 
  1452  0293                     	;# 
  1453  0294                     	;# 
  1454  0295                     	;# 
  1455  0295                     	;# 
  1456  0296                     	;# 
  1457  0298                     	;# 
  1458  0298                     	;# 
  1459  0299                     	;# 
  1460  029A                     	;# 
  1461  029B                     	;# 
  1462  029C                     	;# 
  1463  029C                     	;# 
  1464  029D                     	;# 
  1465  029E                     	;# 
  1466  029E                     	;# 
  1467  0311                     	;# 
  1468  0311                     	;# 
  1469  0312                     	;# 
  1470  0313                     	;# 
  1471  0318                     	;# 
  1472  0318                     	;# 
  1473  0319                     	;# 
  1474  031A                     	;# 
  1475  0394                     	;# 
  1476  0395                     	;# 
  1477  0396                     	;# 
  1478  039A                     	;# 
  1479  039C                     	;# 
  1480  039D                     	;# 
  1481  039E                     	;# 
  1482  039F                     	;# 
  1483  0415                     	;# 
  1484  0416                     	;# 
  1485  0417                     	;# 
  1486  041C                     	;# 
  1487  041D                     	;# 
  1488  041E                     	;# 
  1489  0FE4                     	;# 
  1490  0FE5                     	;# 
  1491  0FE6                     	;# 
  1492  0FE7                     	;# 
  1493  0FE8                     	;# 
  1494  0FE9                     	;# 
  1495  0FEA                     	;# 
  1496  0FEB                     	;# 
  1497  0FED                     	;# 
  1498  0FEE                     	;# 
  1499  0FEF                     	;# 
  1500  0000                     	;# 
  1501  0001                     	;# 
  1502  0002                     	;# 
  1503  0003                     	;# 
  1504  0004                     	;# 
  1505  0005                     	;# 
  1506  0006                     	;# 
  1507  0007                     	;# 
  1508  0008                     	;# 
  1509  0009                     	;# 
  1510  000A                     	;# 
  1511  000B                     	;# 
  1512  000C                     	;# 
  1513  000D                     	;# 
  1514  0011                     	;# 
  1515  0012                     	;# 
  1516  0013                     	;# 
  1517  0014                     	;# 
  1518  0015                     	;# 
  1519  0016                     	;# 
  1520  0016                     	;# 
  1521  0017                     	;# 
  1522  0018                     	;# 
  1523  0019                     	;# 
  1524  001A                     	;# 
  1525  001B                     	;# 
  1526  001C                     	;# 
  1527  001E                     	;# 
  1528  001F                     	;# 
  1529  008C                     	;# 
  1530  008D                     	;# 
  1531  0091                     	;# 
  1532  0092                     	;# 
  1533  0093                     	;# 
  1534  0094                     	;# 
  1535  0095                     	;# 
  1536  0096                     	;# 
  1537  0097                     	;# 
  1538  0098                     	;# 
  1539  0099                     	;# 
  1540  009A                     	;# 
  1541  009B                     	;# 
  1542  009B                     	;# 
  1543  009C                     	;# 
  1544  009D                     	;# 
  1545  009E                     	;# 
  1546  010C                     	;# 
  1547  010D                     	;# 
  1548  0111                     	;# 
  1549  0112                     	;# 
  1550  0113                     	;# 
  1551  0114                     	;# 
  1552  0115                     	;# 
  1553  0116                     	;# 
  1554  0117                     	;# 
  1555  0118                     	;# 
  1556  0119                     	;# 
  1557  011A                     	;# 
  1558  011B                     	;# 
  1559  011D                     	;# 
  1560  011E                     	;# 
  1561  018C                     	;# 
  1562  018D                     	;# 
  1563  0191                     	;# 
  1564  0191                     	;# 
  1565  0192                     	;# 
  1566  0193                     	;# 
  1567  0193                     	;# 
  1568  0193                     	;# 
  1569  0194                     	;# 
  1570  0195                     	;# 
  1571  0196                     	;# 
  1572  0199                     	;# 
  1573  019A                     	;# 
  1574  019B                     	;# 
  1575  019B                     	;# 
  1576  019B                     	;# 
  1577  019B                     	;# 
  1578  019C                     	;# 
  1579  019C                     	;# 
  1580  019D                     	;# 
  1581  019E                     	;# 
  1582  019F                     	;# 
  1583  020C                     	;# 
  1584  020D                     	;# 
  1585  0211                     	;# 
  1586  0211                     	;# 
  1587  0212                     	;# 
  1588  0212                     	;# 
  1589  0213                     	;# 
  1590  0213                     	;# 
  1591  0214                     	;# 
  1592  0214                     	;# 
  1593  0215                     	;# 
  1594  0215                     	;# 
  1595  0215                     	;# 
  1596  0216                     	;# 
  1597  0216                     	;# 
  1598  0217                     	;# 
  1599  0217                     	;# 
  1600  0219                     	;# 
  1601  021A                     	;# 
  1602  021B                     	;# 
  1603  021C                     	;# 
  1604  021D                     	;# 
  1605  021E                     	;# 
  1606  021F                     	;# 
  1607  0291                     	;# 
  1608  0291                     	;# 
  1609  0292                     	;# 
  1610  0293                     	;# 
  1611  0294                     	;# 
  1612  0295                     	;# 
  1613  0295                     	;# 
  1614  0296                     	;# 
  1615  0298                     	;# 
  1616  0298                     	;# 
  1617  0299                     	;# 
  1618  029A                     	;# 
  1619  029B                     	;# 
  1620  029C                     	;# 
  1621  029C                     	;# 
  1622  029D                     	;# 
  1623  029E                     	;# 
  1624  029E                     	;# 
  1625  0311                     	;# 
  1626  0311                     	;# 
  1627  0312                     	;# 
  1628  0313                     	;# 
  1629  0318                     	;# 
  1630  0318                     	;# 
  1631  0319                     	;# 
  1632  031A                     	;# 
  1633  0394                     	;# 
  1634  0395                     	;# 
  1635  0396                     	;# 
  1636  039A                     	;# 
  1637  039C                     	;# 
  1638  039D                     	;# 
  1639  039E                     	;# 
  1640  039F                     	;# 
  1641  0415                     	;# 
  1642  0416                     	;# 
  1643  0417                     	;# 
  1644  041C                     	;# 
  1645  041D                     	;# 
  1646  041E                     	;# 
  1647  0FE4                     	;# 
  1648  0FE5                     	;# 
  1649  0FE6                     	;# 
  1650  0FE7                     	;# 
  1651  0FE8                     	;# 
  1652  0FE9                     	;# 
  1653  0FEA                     	;# 
  1654  0FEB                     	;# 
  1655  0FED                     	;# 
  1656  0FEE                     	;# 
  1657  0FEF                     	;# 
  1658  0000                     	;# 
  1659  0001                     	;# 
  1660  0002                     	;# 
  1661  0003                     	;# 
  1662  0004                     	;# 
  1663  0005                     	;# 
  1664  0006                     	;# 
  1665  0007                     	;# 
  1666  0008                     	;# 
  1667  0009                     	;# 
  1668  000A                     	;# 
  1669  000B                     	;# 
  1670  000C                     	;# 
  1671  000D                     	;# 
  1672  0011                     	;# 
  1673  0012                     	;# 
  1674  0013                     	;# 
  1675  0014                     	;# 
  1676  0015                     	;# 
  1677  0016                     	;# 
  1678  0016                     	;# 
  1679  0017                     	;# 
  1680  0018                     	;# 
  1681  0019                     	;# 
  1682  001A                     	;# 
  1683  001B                     	;# 
  1684  001C                     	;# 
  1685  001E                     	;# 
  1686  001F                     	;# 
  1687  008C                     	;# 
  1688  008D                     	;# 
  1689  0091                     	;# 
  1690  0092                     	;# 
  1691  0093                     	;# 
  1692  0094                     	;# 
  1693  0095                     	;# 
  1694  0096                     	;# 
  1695  0097                     	;# 
  1696  0098                     	;# 
  1697  0099                     	;# 
  1698  009A                     	;# 
  1699  009B                     	;# 
  1700  009B                     	;# 
  1701  009C                     	;# 
  1702  009D                     	;# 
  1703  009E                     	;# 
  1704  010C                     	;# 
  1705  010D                     	;# 
  1706  0111                     	;# 
  1707  0112                     	;# 
  1708  0113                     	;# 
  1709  0114                     	;# 
  1710  0115                     	;# 
  1711  0116                     	;# 
  1712  0117                     	;# 
  1713  0118                     	;# 
  1714  0119                     	;# 
  1715  011A                     	;# 
  1716  011B                     	;# 
  1717  011D                     	;# 
  1718  011E                     	;# 
  1719  018C                     	;# 
  1720  018D                     	;# 
  1721  0191                     	;# 
  1722  0191                     	;# 
  1723  0192                     	;# 
  1724  0193                     	;# 
  1725  0193                     	;# 
  1726  0193                     	;# 
  1727  0194                     	;# 
  1728  0195                     	;# 
  1729  0196                     	;# 
  1730  0199                     	;# 
  1731  019A                     	;# 
  1732  019B                     	;# 
  1733  019B                     	;# 
  1734  019B                     	;# 
  1735  019B                     	;# 
  1736  019C                     	;# 
  1737  019C                     	;# 
  1738  019D                     	;# 
  1739  019E                     	;# 
  1740  019F                     	;# 
  1741  020C                     	;# 
  1742  020D                     	;# 
  1743  0211                     	;# 
  1744  0211                     	;# 
  1745  0212                     	;# 
  1746  0212                     	;# 
  1747  0213                     	;# 
  1748  0213                     	;# 
  1749  0214                     	;# 
  1750  0214                     	;# 
  1751  0215                     	;# 
  1752  0215                     	;# 
  1753  0215                     	;# 
  1754  0216                     	;# 
  1755  0216                     	;# 
  1756  0217                     	;# 
  1757  0217                     	;# 
  1758  0219                     	;# 
  1759  021A                     	;# 
  1760  021B                     	;# 
  1761  021C                     	;# 
  1762  021D                     	;# 
  1763  021E                     	;# 
  1764  021F                     	;# 
  1765  0291                     	;# 
  1766  0291                     	;# 
  1767  0292                     	;# 
  1768  0293                     	;# 
  1769  0294                     	;# 
  1770  0295                     	;# 
  1771  0295                     	;# 
  1772  0296                     	;# 
  1773  0298                     	;# 
  1774  0298                     	;# 
  1775  0299                     	;# 
  1776  029A                     	;# 
  1777  029B                     	;# 
  1778  029C                     	;# 
  1779  029C                     	;# 
  1780  029D                     	;# 
  1781  029E                     	;# 
  1782  029E                     	;# 
  1783  0311                     	;# 
  1784  0311                     	;# 
  1785  0312                     	;# 
  1786  0313                     	;# 
  1787  0318                     	;# 
  1788  0318                     	;# 
  1789  0319                     	;# 
  1790  031A                     	;# 
  1791  0394                     	;# 
  1792  0395                     	;# 
  1793  0396                     	;# 
  1794  039A                     	;# 
  1795  039C                     	;# 
  1796  039D                     	;# 
  1797  039E                     	;# 
  1798  039F                     	;# 
  1799  0415                     	;# 
  1800  0416                     	;# 
  1801  0417                     	;# 
  1802  041C                     	;# 
  1803  041D                     	;# 
  1804  041E                     	;# 
  1805  0FE4                     	;# 
  1806  0FE5                     	;# 
  1807  0FE6                     	;# 
  1808  0FE7                     	;# 
  1809  0FE8                     	;# 
  1810  0FE9                     	;# 
  1811  0FEA                     	;# 
  1812  0FEB                     	;# 
  1813  0FED                     	;# 
  1814  0FEE                     	;# 
  1815  0FEF                     	;# 
  1816  0000                     	;# 
  1817  0001                     	;# 
  1818  0002                     	;# 
  1819  0003                     	;# 
  1820  0004                     	;# 
  1821  0005                     	;# 
  1822  0006                     	;# 
  1823  0007                     	;# 
  1824  0008                     	;# 
  1825  0009                     	;# 
  1826  000A                     	;# 
  1827  000B                     	;# 
  1828  000C                     	;# 
  1829  000D                     	;# 
  1830  0011                     	;# 
  1831  0012                     	;# 
  1832  0013                     	;# 
  1833  0014                     	;# 
  1834  0015                     	;# 
  1835  0016                     	;# 
  1836  0016                     	;# 
  1837  0017                     	;# 
  1838  0018                     	;# 
  1839  0019                     	;# 
  1840  001A                     	;# 
  1841  001B                     	;# 
  1842  001C                     	;# 
  1843  001E                     	;# 
  1844  001F                     	;# 
  1845  008C                     	;# 
  1846  008D                     	;# 
  1847  0091                     	;# 
  1848  0092                     	;# 
  1849  0093                     	;# 
  1850  0094                     	;# 
  1851  0095                     	;# 
  1852  0096                     	;# 
  1853  0097                     	;# 
  1854  0098                     	;# 
  1855  0099                     	;# 
  1856  009A                     	;# 
  1857  009B                     	;# 
  1858  009B                     	;# 
  1859  009C                     	;# 
  1860  009D                     	;# 
  1861  009E                     	;# 
  1862  010C                     	;# 
  1863  010D                     	;# 
  1864  0111                     	;# 
  1865  0112                     	;# 
  1866  0113                     	;# 
  1867  0114                     	;# 
  1868  0115                     	;# 
  1869  0116                     	;# 
  1870  0117                     	;# 
  1871  0118                     	;# 
  1872  0119                     	;# 
  1873  011A                     	;# 
  1874  011B                     	;# 
  1875  011D                     	;# 
  1876  011E                     	;# 
  1877  018C                     	;# 
  1878  018D                     	;# 
  1879  0191                     	;# 
  1880  0191                     	;# 
  1881  0192                     	;# 
  1882  0193                     	;# 
  1883  0193                     	;# 
  1884  0193                     	;# 
  1885  0194                     	;# 
  1886  0195                     	;# 
  1887  0196                     	;# 
  1888  0199                     	;# 
  1889  019A                     	;# 
  1890  019B                     	;# 
  1891  019B                     	;# 
  1892  019B                     	;# 
  1893  019B                     	;# 
  1894  019C                     	;# 
  1895  019C                     	;# 
  1896  019D                     	;# 
  1897  019E                     	;# 
  1898  019F                     	;# 
  1899  020C                     	;# 
  1900  020D                     	;# 
  1901  0211                     	;# 
  1902  0211                     	;# 
  1903  0212                     	;# 
  1904  0212                     	;# 
  1905  0213                     	;# 
  1906  0213                     	;# 
  1907  0214                     	;# 
  1908  0214                     	;# 
  1909  0215                     	;# 
  1910  0215                     	;# 
  1911  0215                     	;# 
  1912  0216                     	;# 
  1913  0216                     	;# 
  1914  0217                     	;# 
  1915  0217                     	;# 
  1916  0219                     	;# 
  1917  021A                     	;# 
  1918  021B                     	;# 
  1919  021C                     	;# 
  1920  021D                     	;# 
  1921  021E                     	;# 
  1922  021F                     	;# 
  1923  0291                     	;# 
  1924  0291                     	;# 
  1925  0292                     	;# 
  1926  0293                     	;# 
  1927  0294                     	;# 
  1928  0295                     	;# 
  1929  0295                     	;# 
  1930  0296                     	;# 
  1931  0298                     	;# 
  1932  0298                     	;# 
  1933  0299                     	;# 
  1934  029A                     	;# 
  1935  029B                     	;# 
  1936  029C                     	;# 
  1937  029C                     	;# 
  1938  029D                     	;# 
  1939  029E                     	;# 
  1940  029E                     	;# 
  1941  0311                     	;# 
  1942  0311                     	;# 
  1943  0312                     	;# 
  1944  0313                     	;# 
  1945  0318                     	;# 
  1946  0318                     	;# 
  1947  0319                     	;# 
  1948  031A                     	;# 
  1949  0394                     	;# 
  1950  0395                     	;# 
  1951  0396                     	;# 
  1952  039A                     	;# 
  1953  039C                     	;# 
  1954  039D                     	;# 
  1955  039E                     	;# 
  1956  039F                     	;# 
  1957  0415                     	;# 
  1958  0416                     	;# 
  1959  0417                     	;# 
  1960  041C                     	;# 
  1961  041D                     	;# 
  1962  041E                     	;# 
  1963  0FE4                     	;# 
  1964  0FE5                     	;# 
  1965  0FE6                     	;# 
  1966  0FE7                     	;# 
  1967  0FE8                     	;# 
  1968  0FE9                     	;# 
  1969  0FEA                     	;# 
  1970  0FEB                     	;# 
  1971  0FED                     	;# 
  1972  0FEE                     	;# 
  1973  0FEF                     	;# 
  1974  0000                     	;# 
  1975  0001                     	;# 
  1976  0002                     	;# 
  1977  0003                     	;# 
  1978  0004                     	;# 
  1979  0005                     	;# 
  1980  0006                     	;# 
  1981  0007                     	;# 
  1982  0008                     	;# 
  1983  0009                     	;# 
  1984  000A                     	;# 
  1985  000B                     	;# 
  1986  000C                     	;# 
  1987  000D                     	;# 
  1988  0011                     	;# 
  1989  0012                     	;# 
  1990  0013                     	;# 
  1991  0014                     	;# 
  1992  0015                     	;# 
  1993  0016                     	;# 
  1994  0016                     	;# 
  1995  0017                     	;# 
  1996  0018                     	;# 
  1997  0019                     	;# 
  1998  001A                     	;# 
  1999  001B                     	;# 
  2000  001C                     	;# 
  2001  001E                     	;# 
  2002  001F                     	;# 
  2003  008C                     	;# 
  2004  008D                     	;# 
  2005  0091                     	;# 
  2006  0092                     	;# 
  2007  0093                     	;# 
  2008  0094                     	;# 
  2009  0095                     	;# 
  2010  0096                     	;# 
  2011  0097                     	;# 
  2012  0098                     	;# 
  2013  0099                     	;# 
  2014  009A                     	;# 
  2015  009B                     	;# 
  2016  009B                     	;# 
  2017  009C                     	;# 
  2018  009D                     	;# 
  2019  009E                     	;# 
  2020  010C                     	;# 
  2021  010D                     	;# 
  2022  0111                     	;# 
  2023  0112                     	;# 
  2024  0113                     	;# 
  2025  0114                     	;# 
  2026  0115                     	;# 
  2027  0116                     	;# 
  2028  0117                     	;# 
  2029  0118                     	;# 
  2030  0119                     	;# 
  2031  011A                     	;# 
  2032  011B                     	;# 
  2033  011D                     	;# 
  2034  011E                     	;# 
  2035  018C                     	;# 
  2036  018D                     	;# 
  2037  0191                     	;# 
  2038  0191                     	;# 
  2039  0192                     	;# 
  2040  0193                     	;# 
  2041  0193                     	;# 
  2042  0193                     	;# 
  2043  0194                     	;# 
  2044  0195                     	;# 
  2045  0196                     	;# 
  2046  0199                     	;# 
  2047  019A                     	;# 
  2048  019B                     	;# 
  2049  019B                     	;# 
  2050  019B                     	;# 
  2051  019B                     	;# 
  2052  019C                     	;# 
  2053  019C                     	;# 
  2054  019D                     	;# 
  2055  019E                     	;# 
  2056  019F                     	;# 
  2057  020C                     	;# 
  2058  020D                     	;# 
  2059  0211                     	;# 
  2060  0211                     	;# 
  2061  0212                     	;# 
  2062  0212                     	;# 
  2063  0213                     	;# 
  2064  0213                     	;# 
  2065  0214                     	;# 
  2066  0214                     	;# 
  2067  0215                     	;# 
  2068  0215                     	;# 
  2069  0215                     	;# 
  2070  0216                     	;# 
  2071  0216                     	;# 
  2072  0217                     	;# 
  2073  0217                     	;# 
  2074  0219                     	;# 
  2075  021A                     	;# 
  2076  021B                     	;# 
  2077  021C                     	;# 
  2078  021D                     	;# 
  2079  021E                     	;# 
  2080  021F                     	;# 
  2081  0291                     	;# 
  2082  0291                     	;# 
  2083  0292                     	;# 
  2084  0293                     	;# 
  2085  0294                     	;# 
  2086  0295                     	;# 
  2087  0295                     	;# 
  2088  0296                     	;# 
  2089  0298                     	;# 
  2090  0298                     	;# 
  2091  0299                     	;# 
  2092  029A                     	;# 
  2093  029B                     	;# 
  2094  029C                     	;# 
  2095  029C                     	;# 
  2096  029D                     	;# 
  2097  029E                     	;# 
  2098  029E                     	;# 
  2099  0311                     	;# 
  2100  0311                     	;# 
  2101  0312                     	;# 
  2102  0313                     	;# 
  2103  0318                     	;# 
  2104  0318                     	;# 
  2105  0319                     	;# 
  2106  031A                     	;# 
  2107  0394                     	;# 
  2108  0395                     	;# 
  2109  0396                     	;# 
  2110  039A                     	;# 
  2111  039C                     	;# 
  2112  039D                     	;# 
  2113  039E                     	;# 
  2114  039F                     	;# 
  2115  0415                     	;# 
  2116  0416                     	;# 
  2117  0417                     	;# 
  2118  041C                     	;# 
  2119  041D                     	;# 
  2120  041E                     	;# 
  2121  0FE4                     	;# 
  2122  0FE5                     	;# 
  2123  0FE6                     	;# 
  2124  0FE7                     	;# 
  2125  0FE8                     	;# 
  2126  0FE9                     	;# 
  2127  0FEA                     	;# 
  2128  0FEB                     	;# 
  2129  0FED                     	;# 
  2130  0FEE                     	;# 
  2131  0FEF                     	;# 
  2132                           
  2133                           	psect	idataBANK1
  2134  036C                     __pidataBANK1:	
  2135                           
  2136                           ;initializer for _H7826_Gain
  2137  036C  3454               	retlw	low (STR_16| (0+32768))
  2138  036D  3481               	retlw	high (STR_16| (0+32768))
  2139  036E  344F               	retlw	low (STR_17| (0+32768))
  2140  036F  3481               	retlw	high (STR_17| (0+32768))
  2141  0370  345E               	retlw	low (STR_18| (0+32768))
  2142  0371  3481               	retlw	high (STR_18| (0+32768))
  2143  0372  3410               	retlw	low (STR_19| (0+32768))
  2144  0373  3481               	retlw	high (STR_19| (0+32768))
  2145  0374  34E6               	retlw	low (STR_20| (0+32768))
  2146  0375  3480               	retlw	high (STR_20| (0+32768))
  2147  0376  34F2               	retlw	low (STR_21| (0+32768))
  2148  0377  3480               	retlw	high (STR_21| (0+32768))
  2149  0378  340A               	retlw	low (STR_22| (0+32768))
  2150  0379  3481               	retlw	high (STR_22| (0+32768))
  2151  037A  34C3               	retlw	low (STR_23| (0+32768))
  2152  037B  3480               	retlw	high (STR_23| (0+32768))
  2153  037C  34BC               	retlw	low (STR_24| (0+32768))
  2154  037D  3480               	retlw	high (STR_24| (0+32768))
  2155  037E  34CA               	retlw	low (STR_25| (0+32768))
  2156  037F  3480               	retlw	high (STR_25| (0+32768))
  2157  0380  3492               	retlw	low (STR_26| (0+32768))
  2158  0381  3480               	retlw	high (STR_26| (0+32768))
  2159  0382  34D8               	retlw	low (STR_27| (0+32768))
  2160  0383  3480               	retlw	high (STR_27| (0+32768))
  2161  0384  348A               	retlw	low (STR_28| (0+32768))
  2162  0385  3480               	retlw	high (STR_28| (0+32768))
  2163  0386  3482               	retlw	low (STR_29| (0+32768))
  2164  0387  3480               	retlw	high (STR_29| (0+32768))
  2165  0388  347A               	retlw	low (STR_30| (0+32768))
  2166  0389  3480               	retlw	high (STR_30| (0+32768))
  2167                           
  2168                           ;initializer for _DAC_VoltageTable
  2169  038A  3472               	retlw	low (STR_1| (0+32768))
  2170  038B  3481               	retlw	high (STR_1| (0+32768))
  2171  038C  3422               	retlw	low (STR_2| (0+32768))
  2172  038D  3481               	retlw	high (STR_2| (0+32768))
  2173  038E  3477               	retlw	low (STR_3| (0+32768))
  2174  038F  3481               	retlw	high (STR_3| (0+32768))
  2175  0390  3428               	retlw	low (STR_4| (0+32768))
  2176  0391  3481               	retlw	high (STR_4| (0+32768))
  2177  0392  347C               	retlw	low (STR_5| (0+32768))
  2178  0393  3481               	retlw	high (STR_5| (0+32768))
  2179  0394  342E               	retlw	low (STR_6| (0+32768))
  2180  0395  3481               	retlw	high (STR_6| (0+32768))
  2181  0396  3481               	retlw	low (STR_7| (0+32768))
  2182  0397  3481               	retlw	high (STR_7| (0+32768))
  2183  0398  3434               	retlw	low (STR_8| (0+32768))
  2184  0399  3481               	retlw	high (STR_8| (0+32768))
  2185  039A  3486               	retlw	low (STR_9| (0+32768))
  2186  039B  3481               	retlw	high (STR_9| (0+32768))
  2187  039C  343A               	retlw	low (STR_10| (0+32768))
  2188  039D  3481               	retlw	high (STR_10| (0+32768))
  2189  039E  3463               	retlw	low (STR_11| (0+32768))
  2190  039F  3481               	retlw	high (STR_11| (0+32768))
  2191  03A0  3416               	retlw	low (STR_12| (0+32768))
  2192  03A1  3481               	retlw	high (STR_12| (0+32768))
  2193  03A2  3468               	retlw	low (STR_13| (0+32768))
  2194  03A3  3481               	retlw	high (STR_13| (0+32768))
  2195  03A4  341C               	retlw	low (STR_14| (0+32768))
  2196  03A5  3481               	retlw	high (STR_14| (0+32768))
  2197  03A6  346D               	retlw	low (STR_15| (0+32768))
  2198  03A7  3481               	retlw	high (STR_15| (0+32768))
  2199                           
  2200                           	psect	idataBANK2
  2201  03F5                     __pidataBANK2:	
  2202                           
  2203                           ;initializer for _H7826_01_Gain
  2204  03F5  3440               	retlw	low (STR_31| (0+32768))
  2205  03F6  3481               	retlw	high (STR_31| (0+32768))
  2206  03F7  3445               	retlw	low (STR_32| (0+32768))
  2207  03F8  3481               	retlw	high (STR_32| (0+32768))
  2208  03F9  3459               	retlw	low (STR_33| (0+32768))
  2209  03FA  3481               	retlw	high (STR_33| (0+32768))
  2210  03FB  344A               	retlw	low (STR_34| (0+32768))
  2211  03FC  3481               	retlw	high (STR_34| (0+32768))
  2212  03FD  34F8               	retlw	low (STR_35| (0+32768))
  2213  03FE  3480               	retlw	high (STR_35| (0+32768))
  2214  03FF  34FE               	retlw	low (STR_36| (0+32768))
  2215  0400  3480               	retlw	high (STR_36| (0+32768))
  2216  0401  3404               	retlw	low (STR_37| (0+32768))
  2217  0402  3481               	retlw	high (STR_37| (0+32768))
  2218  0403  34EC               	retlw	low (STR_38| (0+32768))
  2219  0404  3480               	retlw	high (STR_38| (0+32768))
  2220  0405  34A7               	retlw	low (STR_39| (0+32768))
  2221  0406  3480               	retlw	high (STR_39| (0+32768))
  2222  0407  34D1               	retlw	low (STR_40| (0+32768))
  2223  0408  3480               	retlw	high (STR_40| (0+32768))
  2224  0409  34AE               	retlw	low (STR_41| (0+32768))
  2225  040A  3480               	retlw	high (STR_41| (0+32768))
  2226  040B  34B5               	retlw	low (STR_42| (0+32768))
  2227  040C  3480               	retlw	high (STR_42| (0+32768))
  2228  040D  34DF               	retlw	low (STR_43| (0+32768))
  2229  040E  3480               	retlw	high (STR_43| (0+32768))
  2230  040F  3499               	retlw	low (STR_44| (0+32768))
  2231  0410  3480               	retlw	high (STR_44| (0+32768))
  2232  0411  34A0               	retlw	low (STR_45| (0+32768))
  2233  0412  3480               	retlw	high (STR_45| (0+32768))
  2234                           
  2235                           	psect	stringtext
  2236  005C                     __pstringtext:	
  2237  005C                     _DAC_DataTable:	
  2238  005C  3499               	retlw	153
  2239  005D  3401               	retlw	1
  2240  005E  34C2               	retlw	194
  2241  005F  3401               	retlw	1
  2242  0060  34EB               	retlw	235
  2243  0061  3401               	retlw	1
  2244  0062  3414               	retlw	20
  2245  0063  3402               	retlw	2
  2246  0064  343D               	retlw	61
  2247  0065  3402               	retlw	2
  2248  0066  3466               	retlw	102
  2249  0067  3402               	retlw	2
  2250  0068  348F               	retlw	143
  2251  0069  3402               	retlw	2
  2252  006A  34B8               	retlw	184
  2253  006B  3402               	retlw	2
  2254  006C  34E1               	retlw	225
  2255  006D  3402               	retlw	2
  2256  006E  340A               	retlw	10
  2257  006F  3403               	retlw	3
  2258  0070  3433               	retlw	51
  2259  0071  3403               	retlw	3
  2260  0072  345B               	retlw	91
  2261  0073  3403               	retlw	3
  2262  0074  3484               	retlw	132
  2263  0075  3403               	retlw	3
  2264  0076  34AD               	retlw	173
  2265  0077  3403               	retlw	3
  2266  0078  34D6               	retlw	214
  2267  0079  3403               	retlw	3
  2268  007A                     __end_of_DAC_DataTable:	
  2269  0016                     _TMR1	set	22
  2270  000C                     _PORTA	set	12
  2271  001F                     _CPSCON1	set	31
  2272  001E                     _CPSCON0	set	30
  2273  0015                     _TMR0	set	21
  2274  0019                     _T1GCON	set	25
  2275  0018                     _T1CON	set	24
  2276  000D                     _PORTB	set	13
  2277  001B                     _PR2	set	27
  2278  001A                     _TMR2	set	26
  2279  001C                     _T2CON	set	28
  2280  00C0                     _TMR1ON	set	192
  2281  009B                     _TMR6IF	set	155
  2282  0099                     _TMR4IF	set	153
  2283  0088                     _TMR1IF	set	136
  2284  005F                     _GIE	set	95
  2285  005E                     _PEIE	set	94
  2286  00A1                     _BCL2IF	set	161
  2287  00A0                     _SSP2IF	set	160
  2288  0093                     _BCL1IF	set	147
  2289  008B                     _SSP1IF	set	139
  2290  0099                     _OSCCON	set	153
  2291  0095                     _OPTION_REG	set	149
  2292  008D                     _TRISB	set	141
  2293  008C                     _TRISA	set	140
  2294  049B                     _TMR6IE	set	1179
  2295  0499                     _TMR4IE	set	1177
  2296  0488                     _TMR1IE	set	1160
  2297  04A1                     _BCL2IE	set	1185
  2298  04A0                     _SSP2IE	set	1184
  2299  0493                     _BCL1IE	set	1171
  2300  048B                     _SSP1IE	set	1163
  2301  011E                     _APFCON1	set	286
  2302  011D                     _APFCON0	set	285
  2303  0866                     _LATA6	set	2150
  2304  0863                     _LATA3	set	2147
  2305  0864                     _LATA4	set	2148
  2306  018D                     _ANSELB	set	397
  2307  018C                     _ANSELA	set	396
  2308  021C                     _SSP2STATbits	set	540
  2309  0219                     _SSP2BUF	set	537
  2310  021E                     _SSP2CON2	set	542
  2311  021B                     _SSP2MSK	set	539
  2312  021E                     _SSP2CON2bits	set	542
  2313  021D                     _SSP2CON1bits	set	541
  2314  021A                     _SSP2ADD	set	538
  2315  021C                     _SSP2STAT	set	540
  2316  021D                     _SSP2CON1	set	541
  2317  0214                     _SSP1STATbits	set	532
  2318  0211                     _SSP1BUF	set	529
  2319  0216                     _SSP1CON2	set	534
  2320  0213                     _SSP1MSK	set	531
  2321  0216                     _SSP1CON2bits	set	534
  2322  0215                     _SSP1CON1bits	set	533
  2323  0212                     _SSP1ADD	set	530
  2324  0214                     _SSP1STAT	set	532
  2325  0215                     _SSP1CON1	set	533
  2326  0298                     _CCPR2L	set	664
  2327  029E                     _CCPTMRS	set	670
  2328  029A                     _CCP2CON	set	666
  2329  041E                     _T6CON	set	1054
  2330  041C                     _TMR6	set	1052
  2331  041D                     _PR6	set	1053
  2332  0417                     _T4CON	set	1047
  2333  0415                     _TMR4	set	1045
  2334  0416                     _PR4	set	1046
  2335  007A                     STR_30:	
  2336  007A  3432               	retlw	50	;'2'
  2337  007B  3437               	retlw	55	;'7'
  2338  007C  3437               	retlw	55	;'7'
  2339  007D  3434               	retlw	52	;'4'
  2340  007E  3435               	retlw	53	;'5'
  2341  007F  3436               	retlw	54	;'6'
  2342  0080  3432               	retlw	50	;'2'
  2343  0081  3400               	retlw	0
  2344  0082                     STR_29:	
  2345  0082  3431               	retlw	49	;'1'
  2346  0083  3439               	retlw	57	;'9'
  2347  0084  3434               	retlw	52	;'4'
  2348  0085  3430               	retlw	48	;'0'
  2349  0086  3436               	retlw	54	;'6'
  2350  0087  3437               	retlw	55	;'7'
  2351  0088  3433               	retlw	51	;'3'
  2352  0089  3400               	retlw	0
  2353  008A                     STR_28:	
  2354  008A  3431               	retlw	49	;'1'
  2355  008B  3433               	retlw	51	;'3'
  2356  008C  3433               	retlw	51	;'3'
  2357  008D  3436               	retlw	54	;'6'
  2358  008E  3430               	retlw	48	;'0'
  2359  008F  3430               	retlw	48	;'0'
  2360  0090  3436               	retlw	54	;'6'
  2361  0091  3400               	retlw	0
  2362  0092                     STR_26:	
  2363  0092  3436               	retlw	54	;'6'
  2364  0093  3430               	retlw	48	;'0'
  2365  0094  3430               	retlw	48	;'0'
  2366  0095  3430               	retlw	48	;'0'
  2367  0096  3430               	retlw	48	;'0'
  2368  0097  3430               	retlw	48	;'0'
  2369  0098  3400               	retlw	0
  2370  0099                     STR_44:	
  2371  0099  3437               	retlw	55	;'7'
  2372  009A  3430               	retlw	48	;'0'
  2373  009B  3430               	retlw	48	;'0'
  2374  009C  3438               	retlw	56	;'8'
  2375  009D  3439               	retlw	57	;'9'
  2376  009E  3430               	retlw	48	;'0'
  2377  009F  3400               	retlw	0
  2378  00A0                     STR_45:	
  2379  00A0  3439               	retlw	57	;'9'
  2380  00A1  3436               	retlw	54	;'6'
  2381  00A2  3438               	retlw	56	;'8'
  2382  00A3  3434               	retlw	52	;'4'
  2383  00A4  3437               	retlw	55	;'7'
  2384  00A5  3432               	retlw	50	;'2'
  2385  00A6  3400               	retlw	0
  2386  00A7                     STR_39:	
  2387  00A7  3431               	retlw	49	;'1'
  2388  00A8  3430               	retlw	48	;'0'
  2389  00A9  3438               	retlw	56	;'8'
  2390  00AA  3438               	retlw	56	;'8'
  2391  00AB  3434               	retlw	52	;'4'
  2392  00AC  3433               	retlw	51	;'3'
  2393  00AD  3400               	retlw	0
  2394  00AE                     STR_41:	
  2395  00AE  3432               	retlw	50	;'2'
  2396  00AF  3434               	retlw	52	;'4'
  2397  00B0  3432               	retlw	50	;'2'
  2398  00B1  3433               	retlw	51	;'3'
  2399  00B2  3436               	retlw	54	;'6'
  2400  00B3  3434               	retlw	52	;'4'
  2401  00B4  3400               	retlw	0
  2402  00B5                     STR_42:	
  2403  00B5  3433               	retlw	51	;'3'
  2404  00B6  3435               	retlw	53	;'5'
  2405  00B7  3431               	retlw	49	;'1'
  2406  00B8  3431               	retlw	49	;'1'
  2407  00B9  3432               	retlw	50	;'2'
  2408  00BA  3437               	retlw	55	;'7'
  2409  00BB  3400               	retlw	0
  2410  00BC                     STR_24:	
  2411  00BC  3432               	retlw	50	;'2'
  2412  00BD  3434               	retlw	52	;'4'
  2413  00BE  3437               	retlw	55	;'7'
  2414  00BF  3436               	retlw	54	;'6'
  2415  00C0  3434               	retlw	52	;'4'
  2416  00C1  3437               	retlw	55	;'7'
  2417  00C2  3400               	retlw	0
  2418  00C3                     STR_23:	
  2419  00C3  3431               	retlw	49	;'1'
  2420  00C4  3435               	retlw	53	;'5'
  2421  00C5  3433               	retlw	51	;'3'
  2422  00C6  3432               	retlw	50	;'2'
  2423  00C7  3432               	retlw	50	;'2'
  2424  00C8  3438               	retlw	56	;'8'
  2425  00C9  3400               	retlw	0
  2426  00CA                     STR_25:	
  2427  00CA  3433               	retlw	51	;'3'
  2428  00CB  3438               	retlw	56	;'8'
  2429  00CC  3439               	retlw	57	;'9'
  2430  00CD  3439               	retlw	57	;'9'
  2431  00CE  3438               	retlw	56	;'8'
  2432  00CF  3438               	retlw	56	;'8'
  2433  00D0  3400               	retlw	0
  2434  00D1                     STR_40:	
  2435  00D1  3431               	retlw	49	;'1'
  2436  00D2  3436               	retlw	54	;'6'
  2437  00D3  3434               	retlw	52	;'4'
  2438  00D4  3431               	retlw	49	;'1'
  2439  00D5  3433               	retlw	51	;'3'
  2440  00D6  3439               	retlw	57	;'9'
  2441  00D7  3400               	retlw	0
  2442  00D8                     STR_27:	
  2443  00D8  3439               	retlw	57	;'9'
  2444  00D9  3430               	retlw	48	;'0'
  2445  00DA  3433               	retlw	51	;'3'
  2446  00DB  3438               	retlw	56	;'8'
  2447  00DC  3439               	retlw	57	;'9'
  2448  00DD  3439               	retlw	57	;'9'
  2449  00DE  3400               	retlw	0
  2450  00DF                     STR_43:	
  2451  00DF  3434               	retlw	52	;'4'
  2452  00E0  3439               	retlw	57	;'9'
  2453  00E1  3439               	retlw	57	;'9'
  2454  00E2  3439               	retlw	57	;'9'
  2455  00E3  3439               	retlw	57	;'9'
  2456  00E4  3439               	retlw	57	;'9'
  2457  00E5  3400               	retlw	0
  2458  00E6                     STR_20:	
  2459  00E6  3433               	retlw	51	;'3'
  2460  00E7  3430               	retlw	48	;'0'
  2461  00E8  3430               	retlw	48	;'0'
  2462  00E9  3430               	retlw	48	;'0'
  2463  00EA  3430               	retlw	48	;'0'
  2464  00EB  3400               	retlw	0
  2465  00EC                     STR_38:	
  2466  00EC  3437               	retlw	55	;'7'
  2467  00ED  3430               	retlw	48	;'0'
  2468  00EE  3435               	retlw	53	;'5'
  2469  00EF  3430               	retlw	48	;'0'
  2470  00F0  3430               	retlw	48	;'0'
  2471  00F1  3400               	retlw	0
  2472  00F2                     STR_21:	
  2473  00F2  3435               	retlw	53	;'5'
  2474  00F3  3433               	retlw	51	;'3'
  2475  00F4  3435               	retlw	53	;'5'
  2476  00F5  3435               	retlw	53	;'5'
  2477  00F6  3433               	retlw	51	;'3'
  2478  00F7  3400               	retlw	0
  2479  00F8                     STR_35:	
  2480  00F8  3431               	retlw	49	;'1'
  2481  00F9  3436               	retlw	54	;'6'
  2482  00FA  3431               	retlw	49	;'1'
  2483  00FB  3432               	retlw	50	;'2'
  2484  00FC  3435               	retlw	53	;'5'
  2485  00FD  3400               	retlw	0
  2486  00FE                     STR_36:	
  2487  00FE  3432               	retlw	50	;'2'
  2488  00FF  3437               	retlw	55	;'7'
  2489  0100  3432               	retlw	50	;'2'
  2490  0101  3433               	retlw	51	;'3'
  2491  0102  3438               	retlw	56	;'8'
  2492  0103  3400               	retlw	0
  2493  0104                     STR_37:	
  2494  0104  3434               	retlw	52	;'4'
  2495  0105  3434               	retlw	52	;'4'
  2496  0106  3434               	retlw	52	;'4'
  2497  0107  3437               	retlw	55	;'7'
  2498  0108  3438               	retlw	56	;'8'
  2499  0109  3400               	retlw	0
  2500  010A                     STR_22:	
  2501  010A  3439               	retlw	57	;'9'
  2502  010B  3432               	retlw	50	;'2'
  2503  010C  3430               	retlw	48	;'0'
  2504  010D  3438               	retlw	56	;'8'
  2505  010E  3438               	retlw	56	;'8'
  2506  010F  3400               	retlw	0
  2507  0110                     STR_19:	
  2508  0110  3431               	retlw	49	;'1'
  2509  0111  3436               	retlw	54	;'6'
  2510  0112  3430               	retlw	48	;'0'
  2511  0113  3439               	retlw	57	;'9'
  2512  0114  3439               	retlw	57	;'9'
  2513  0115  3400               	retlw	0
  2514  0116                     STR_12:	
  2515  0116  3431               	retlw	49	;'1'
  2516  0117  342E               	retlw	46	;'.'
  2517  0118  3430               	retlw	48	;'0'
  2518  0119  3435               	retlw	53	;'5'
  2519  011A  3456               	retlw	86	;'V'
  2520  011B  3400               	retlw	0
  2521  011C                     STR_14:	
  2522  011C  3431               	retlw	49	;'1'
  2523  011D  342E               	retlw	46	;'.'
  2524  011E  3431               	retlw	49	;'1'
  2525  011F  3435               	retlw	53	;'5'
  2526  0120  3456               	retlw	86	;'V'
  2527  0121  3400               	retlw	0
  2528  0122                     STR_2:	
  2529  0122  3430               	retlw	48	;'0'
  2530  0123  342E               	retlw	46	;'.'
  2531  0124  3435               	retlw	53	;'5'
  2532  0125  3435               	retlw	53	;'5'
  2533  0126  3456               	retlw	86	;'V'
  2534  0127  3400               	retlw	0
  2535  0128                     STR_4:	
  2536  0128  3430               	retlw	48	;'0'
  2537  0129  342E               	retlw	46	;'.'
  2538  012A  3436               	retlw	54	;'6'
  2539  012B  3435               	retlw	53	;'5'
  2540  012C  3456               	retlw	86	;'V'
  2541  012D  3400               	retlw	0
  2542  012E                     STR_6:	
  2543  012E  3430               	retlw	48	;'0'
  2544  012F  342E               	retlw	46	;'.'
  2545  0130  3437               	retlw	55	;'7'
  2546  0131  3435               	retlw	53	;'5'
  2547  0132  3456               	retlw	86	;'V'
  2548  0133  3400               	retlw	0
  2549  0134                     STR_8:	
  2550  0134  3430               	retlw	48	;'0'
  2551  0135  342E               	retlw	46	;'.'
  2552  0136  3438               	retlw	56	;'8'
  2553  0137  3435               	retlw	53	;'5'
  2554  0138  3456               	retlw	86	;'V'
  2555  0139  3400               	retlw	0
  2556  013A                     STR_10:	
  2557  013A  3430               	retlw	48	;'0'
  2558  013B  342E               	retlw	46	;'.'
  2559  013C  3439               	retlw	57	;'9'
  2560  013D  3435               	retlw	53	;'5'
  2561  013E  3456               	retlw	86	;'V'
  2562  013F  3400               	retlw	0
  2563  0140                     STR_31:	
  2564  0140  3431               	retlw	49	;'1'
  2565  0141  3432               	retlw	50	;'2'
  2566  0142  3435               	retlw	53	;'5'
  2567  0143  3430               	retlw	48	;'0'
  2568  0144  3400               	retlw	0
  2569  0145                     STR_32:	
  2570  0145  3432               	retlw	50	;'2'
  2571  0146  3435               	retlw	53	;'5'
  2572  0147  3438               	retlw	56	;'8'
  2573  0148  3430               	retlw	48	;'0'
  2574  0149  3400               	retlw	0
  2575  014A                     STR_34:	
  2576  014A  3439               	retlw	57	;'9'
  2577  014B  3431               	retlw	49	;'1'
  2578  014C  3438               	retlw	56	;'8'
  2579  014D  3432               	retlw	50	;'2'
  2580  014E  3400               	retlw	0
  2581  014F                     STR_17:	
  2582  014F  3433               	retlw	51	;'3'
  2583  0150  3439               	retlw	57	;'9'
  2584  0151  3435               	retlw	53	;'5'
  2585  0152  3437               	retlw	55	;'7'
  2586  0153  3400               	retlw	0
  2587  0154                     STR_16:	
  2588  0154  3431               	retlw	49	;'1'
  2589  0155  3437               	retlw	55	;'7'
  2590  0156  3437               	retlw	55	;'7'
  2591  0157  3437               	retlw	55	;'7'
  2592  0158  3400               	retlw	0
  2593  0159                     STR_33:	
  2594  0159  3434               	retlw	52	;'4'
  2595  015A  3439               	retlw	57	;'9'
  2596  015B  3439               	retlw	57	;'9'
  2597  015C  3438               	retlw	56	;'8'
  2598  015D  3400               	retlw	0
  2599  015E                     STR_18:	
  2600  015E  3438               	retlw	56	;'8'
  2601  015F  3432               	retlw	50	;'2'
  2602  0160  3431               	retlw	49	;'1'
  2603  0161  3439               	retlw	57	;'9'
  2604  0162  3400               	retlw	0
  2605  0163                     STR_11:	
  2606  0163  3431               	retlw	49	;'1'
  2607  0164  342E               	retlw	46	;'.'
  2608  0165  3430               	retlw	48	;'0'
  2609  0166  3456               	retlw	86	;'V'
  2610  0167  3400               	retlw	0
  2611  0168                     STR_13:	
  2612  0168  3431               	retlw	49	;'1'
  2613  0169  342E               	retlw	46	;'.'
  2614  016A  3431               	retlw	49	;'1'
  2615  016B  3456               	retlw	86	;'V'
  2616  016C  3400               	retlw	0
  2617  016D                     STR_15:	
  2618  016D  3431               	retlw	49	;'1'
  2619  016E  342E               	retlw	46	;'.'
  2620  016F  3432               	retlw	50	;'2'
  2621  0170  3456               	retlw	86	;'V'
  2622  0171  3400               	retlw	0
  2623  0172                     STR_1:	
  2624  0172  3430               	retlw	48	;'0'
  2625  0173  342E               	retlw	46	;'.'
  2626  0174  3435               	retlw	53	;'5'
  2627  0175  3456               	retlw	86	;'V'
  2628  0176  3400               	retlw	0
  2629  0177                     STR_3:	
  2630  0177  3430               	retlw	48	;'0'
  2631  0178  342E               	retlw	46	;'.'
  2632  0179  3436               	retlw	54	;'6'
  2633  017A  3456               	retlw	86	;'V'
  2634  017B  3400               	retlw	0
  2635  017C                     STR_5:	
  2636  017C  3430               	retlw	48	;'0'
  2637  017D  342E               	retlw	46	;'.'
  2638  017E  3437               	retlw	55	;'7'
  2639  017F  3456               	retlw	86	;'V'
  2640  0180  3400               	retlw	0
  2641  0181                     STR_7:	
  2642  0181  3430               	retlw	48	;'0'
  2643  0182  342E               	retlw	46	;'.'
  2644  0183  3438               	retlw	56	;'8'
  2645  0184  3456               	retlw	86	;'V'
  2646  0185  3400               	retlw	0
  2647  0186                     STR_9:	
  2648  0186  3430               	retlw	48	;'0'
  2649  0187  342E               	retlw	46	;'.'
  2650  0188  3439               	retlw	57	;'9'
  2651  0189  3456               	retlw	86	;'V'
  2652  018A  3400               	retlw	0
  2653                           
  2654                           ; #config settings
  2655  0000                     
  2656                           	psect	cinit
  2657  0033                     start_initialization:	
  2658  0033                     __initialization:	
  2659                           
  2660                           ; Initialize objects allocated to BANK1
  2661  0033  306C               	movlw	low __pidataBANK1
  2662  0034  0084               	movwf	4
  2663  0035  3083               	movlw	(high __pidataBANK1)| (0+128)
  2664  0036  0085               	movwf	5
  2665  0037  30A0               	movlw	low __pdataBANK1
  2666  0038  0086               	movwf	6
  2667  0039  3000               	movlw	high __pdataBANK1
  2668  003A  0087               	movwf	7
  2669  003B  303C               	movlw	60
  2670  003C  3185  2528  3180   	fcall	init_ram
  2671                           
  2672                           ; Initialize objects allocated to BANK2
  2673  003F  30F5               	movlw	low __pidataBANK2
  2674  0040  0084               	movwf	4
  2675  0041  3083               	movlw	(high __pidataBANK2)| (0+128)
  2676  0042  0085               	movwf	5
  2677  0043  3020               	movlw	low __pdataBANK2
  2678  0044  0086               	movwf	6
  2679  0045  3001               	movlw	high __pdataBANK2
  2680  0046  0087               	movwf	7
  2681  0047  301E               	movlw	30
  2682  0048  3185  2528  3180   	fcall	init_ram
  2683                           
  2684                           ; Clear objects allocated to COMMON
  2685  004B  01F0               	clrf	__pbssCOMMON& (0+127)
  2686  004C  01F1               	clrf	(__pbssCOMMON+1)& (0+127)
  2687  004D  01F2               	clrf	(__pbssCOMMON+2)& (0+127)
  2688  004E  01F3               	clrf	(__pbssCOMMON+3)& (0+127)
  2689  004F  01F4               	clrf	(__pbssCOMMON+4)& (0+127)
  2690  0050  01F5               	clrf	(__pbssCOMMON+5)& (0+127)
  2691                           
  2692                           ; Clear objects allocated to BANK0
  2693  0051  3020               	movlw	low __pbssBANK0
  2694  0052  0084               	movwf	4
  2695  0053  3000               	movlw	high __pbssBANK0
  2696  0054  0085               	movwf	5
  2697  0055  303E               	movlw	62
  2698  0056  3185  252E         	fcall	clear_ram0
  2699  0058                     end_of_initialization:	
  2700                           ;End of C runtime variable initialization code
  2701                           
  2702  0058                     __end_of__initialization:	
  2703  0058  107E               	bcf	int$flags,0	;clear compiler interrupt flag (level 1)
  2704  0059  0020               	movlb	0
  2705  005A  3182  2AA2         	ljmp	_main	;jump to C main() function
  2706                           
  2707                           	psect	bssCOMMON
  2708  0070                     __pbssCOMMON:	
  2709  0070                     _mode:	
  2710  0070                     	ds	2
  2711  0072                     _count:	
  2712  0072                     	ds	2
  2713  0074                     CPSx_Read@channel:	
  2714  0074                     	ds	1
  2715  0075                     _ConfigReg:	
  2716  0075                     	ds	1
  2717                           
  2718                           	psect	bssBANK0
  2719  0020                     __pbssBANK0:	
  2720  0020                     _timesum:	
  2721  0020                     	ds	4
  2722  0024                     _countsum:	
  2723  0024                     	ds	4
  2724  0028                     _mTouch_Interval:	
  2725  0028                     	ds	3
  2726  002B                     _CPS_Data:	
  2727  002B                     	ds	3
  2728  002E                     _CPS_PreData:	
  2729  002E                     	ds	3
  2730  0031                     _MemoryReg:	
  2731  0031                     	ds	3
  2732  0034                     _errno:	
  2733  0034                     	ds	2
  2734  0036                     _I2C2_Config:	
  2735  0036                     	ds	19
  2736  0049                     _I2C1_Config:	
  2737  0049                     	ds	19
  2738  005C                     _VoltageReg:	
  2739  005C                     	ds	2
  2740                           
  2741                           	psect	dataBANK1
  2742  00A0                     __pdataBANK1:	
  2743  00A0                     _H7826_Gain:	
  2744  00A0                     	ds	30
  2745  00BE                     _DAC_VoltageTable:	
  2746  00BE                     	ds	30
  2747                           
  2748                           	psect	dataBANK2
  2749  0120                     __pdataBANK2:	
  2750  0120                     _H7826_01_Gain:	
  2751  0120                     	ds	30
  2752                           
  2753                           	psect	inittext
  2754  0528                     init_ram:	
  2755  0528  00FE               	movwf	126
  2756  0529                     initloop:	
  2757  0529  0012               	moviw fsr0++
  2758  052A  001E               	movwi fsr1++
  2759  052B  0BFE               	decfsz	126,f
  2760  052C  2D29               	goto	initloop
  2761  052D  3400               	retlw	0
  2762                           
  2763                           	psect	clrtext
  2764  052E                     clear_ram0:	
  2765                           ;	Called with FSR0 containing the base address, and
  2766                           ;	WREG with the size to clear
  2767                           
  2768  052E  0064               	clrwdt	;clear the watchdog before getting into this loop
  2769  052F                     clrloop0:	
  2770  052F  0180               	clrf	0	;clear RAM location pointed to by FSR
  2771  0530  3101               	addfsr 0,1
  2772  0531  0B89               	decfsz	9,f	;Have we reached the end of clearing yet?
  2773  0532  2D2F               	goto	clrloop0	;have we reached the end yet?
  2774  0533  3400               	retlw	0	;all done for this memory range, return
  2775                           
  2776                           	psect	cstackCOMMON
  2777  0076                     __pcstackCOMMON:	
  2778  0076                     ?_LCD_DisplayClear:	
  2779  0076                     ?_Basic_Init:	
  2780                           ; 1 bytes @ 0x0
  2781                           
  2782  0076                     ?_mTouch_Read:	
  2783                           ; 1 bytes @ 0x0
  2784                           
  2785  0076                     ?_mTouch_IntervalDecrement:	
  2786                           ; 1 bytes @ 0x0
  2787                           
  2788  0076                     ??_mTouch_IntervalDecrement:	
  2789                           ; 1 bytes @ 0x0
  2790                           
  2791  0076                     ?_Buzzer_Init:	
  2792                           ; 1 bytes @ 0x0
  2793                           
  2794  0076                     ?_Buzzer_SetDuty:	
  2795                           ; 1 bytes @ 0x0
  2796                           
  2797  0076                     ?_Buzzer_Handler:	
  2798                           ; 1 bytes @ 0x0
  2799                           
  2800  0076                     ?_I2C1_Interrupt:	
  2801                           ; 1 bytes @ 0x0
  2802                           
  2803  0076                     ??_I2C1_Interrupt:	
  2804                           ; 1 bytes @ 0x0
  2805                           
  2806  0076                     ?_I2C2_Interrupt:	
  2807                           ; 1 bytes @ 0x0
  2808                           
  2809  0076                     ??_I2C2_Interrupt:	
  2810                           ; 1 bytes @ 0x0
  2811                           
  2812  0076                     ?_I2C_CommonInterrupt:	
  2813                           ; 1 bytes @ 0x0
  2814                           
  2815  0076                     ?_LCD_WriteData:	
  2816                           ; 1 bytes @ 0x0
  2817                           
  2818  0076                     ?_LCD_Init:	
  2819                           ; 1 bytes @ 0x0
  2820                           
  2821  0076                     ?_LCD_CursorHome:	
  2822                           ; 1 bytes @ 0x0
  2823                           
  2824  0076                     ?_Timer1_Init:	
  2825                           ; 1 bytes @ 0x0
  2826                           
  2827  0076                     ?_Timer1_Count10us:	
  2828                           ; 1 bytes @ 0x0
  2829                           
  2830  0076                     ??_Timer1_Count10us:	
  2831                           ; 1 bytes @ 0x0
  2832                           
  2833  0076                     ?_Timer1_DetectAssignCount:	
  2834                           ; 1 bytes @ 0x0
  2835                           
  2836  0076                     ??_Timer1_DetectAssignCount:	
  2837                           ; 1 bytes @ 0x0
  2838                           
  2839  0076                     ?_Timer4_Init:	
  2840                           ; 1 bytes @ 0x0
  2841                           
  2842  0076                     ?_Timer4_Handler:	
  2843                           ; 1 bytes @ 0x0
  2844                           
  2845  0076                     ??_Timer4_Handler:	
  2846                           ; 1 bytes @ 0x0
  2847                           
  2848  0076                     ?_Timer6_Init:	
  2849                           ; 1 bytes @ 0x0
  2850                           
  2851  0076                     ?_Timer6_Handler:	
  2852                           ; 1 bytes @ 0x0
  2853                           
  2854  0076                     ??_Timer6_Handler:	
  2855                           ; 1 bytes @ 0x0
  2856                           
  2857  0076                     ?_mTouch_PortInit:	
  2858                           ; 1 bytes @ 0x0
  2859                           
  2860  0076                     ?_mTouch_Init:	
  2861                           ; 1 bytes @ 0x0
  2862                           
  2863  0076                     ?_CPSx_Read:	
  2864                           ; 1 bytes @ 0x0
  2865                           
  2866  0076                     ??_CPSx_Read:	
  2867                           ; 1 bytes @ 0x0
  2868                           
  2869  0076                     ?_main:	
  2870                           ; 1 bytes @ 0x0
  2871                           
  2872  0076                     ?_Handler:	
  2873                           ; 1 bytes @ 0x0
  2874                           
  2875  0076                     Buzzer_SetDuty@duty:	
  2876                           ; 1 bytes @ 0x0
  2877                           
  2878                           
  2879                           ; 2 bytes @ 0x0
  2880  0076                     	ds	1
  2881  0077                     ??_I2C_CommonInterrupt:	
  2882                           
  2883                           ; 1 bytes @ 0x1
  2884  0077                     	ds	1
  2885  0078                     ??_Buzzer_SetDuty:	
  2886                           
  2887                           ; 1 bytes @ 0x2
  2888  0078                     	ds	2
  2889  007A                     Buzzer_SetDuty@CCP2CON_Pre:	
  2890                           
  2891                           ; 1 bytes @ 0x4
  2892  007A                     	ds	1
  2893  007B                     ??_Buzzer_Handler:	
  2894  007B                     ??_Handler:	
  2895                           ; 1 bytes @ 0x5
  2896                           
  2897                           
  2898                           ; 1 bytes @ 0x5
  2899  007B                     	ds	1
  2900                           
  2901                           	psect	cstackBANK0
  2902  005E                     __pcstackBANK0:	
  2903  005E                     ??_Basic_Init:	
  2904  005E                     ??_Buzzer_Init:	
  2905                           ; 1 bytes @ 0x0
  2906                           
  2907  005E                     ?_Buzzer_MiliSecond:	
  2908                           ; 1 bytes @ 0x0
  2909                           
  2910  005E                     ??_LCD_WriteData:	
  2911                           ; 1 bytes @ 0x0
  2912                           
  2913  005E                     ??_Timer1_Init:	
  2914                           ; 1 bytes @ 0x0
  2915                           
  2916  005E                     ??_Timer4_Init:	
  2917                           ; 1 bytes @ 0x0
  2918                           
  2919  005E                     ??_Timer6_Init:	
  2920                           ; 1 bytes @ 0x0
  2921                           
  2922  005E                     ??_mTouch_PortInit:	
  2923                           ; 1 bytes @ 0x0
  2924                           
  2925  005E                     Buzzer_MiliSecond@time:	
  2926                           ; 1 bytes @ 0x0
  2927                           
  2928                           
  2929                           ; 2 bytes @ 0x0
  2930  005E                     	ds	1
  2931  005F                     ??_mTouch_Init:	
  2932                           
  2933                           ; 1 bytes @ 0x1
  2934  005F                     	ds	1
  2935  0060                     ??_mTouch_Read:	
  2936  0060                     ??_Buzzer_MiliSecond:	
  2937                           ; 1 bytes @ 0x2
  2938                           
  2939  0060                     LCD_WriteData@point:	
  2940                           ; 1 bytes @ 0x2
  2941                           
  2942                           
  2943                           ; 1 bytes @ 0x2
  2944  0060                     	ds	1
  2945  0061                     ??_LCD_DisplayClear:	
  2946  0061                     ??_LCD_CursorHome:	
  2947                           ; 1 bytes @ 0x3
  2948                           
  2949                           
  2950                           ; 1 bytes @ 0x3
  2951  0061                     	ds	1
  2952  0062                     ??_LCD_Init:	
  2953                           
  2954                           ; 1 bytes @ 0x4
  2955  0062                     	ds	3
  2956  0065                     mTouch_Read@chan:	
  2957                           
  2958                           ; 1 bytes @ 0x7
  2959  0065                     	ds	1
  2960  0066                     ??_main:	
  2961                           
  2962                           ; 1 bytes @ 0x8
  2963  0066                     	ds	1
  2964                           
  2965                           	psect	maintext
  2966  02A2                     __pmaintext:	
  2967 ;;
  2968 ;;Main: autosize = 0, tempsize = 1, incstack = 0, save=0
  2969 ;;
  2970 ;; *************** function _main *****************
  2971 ;; Defined at:
  2972 ;;		line 18 in file "main.c"
  2973 ;; Parameters:    Size  Location     Type
  2974 ;;		None
  2975 ;; Auto vars:     Size  Location     Type
  2976 ;;		None
  2977 ;; Return value:  Size  Location     Type
  2978 ;;                  1    wreg      char 
  2979 ;; Registers used:
  2980 ;;		wreg, fsr0l, fsr0h, fsr1l, fsr1h, status,2, status,0, pclath, cstack
  2981 ;; Tracked objects:
  2982 ;;		On entry : B1F/0
  2983 ;;		On exit  : 0/0
  2984 ;;		Unchanged: 0/0
  2985 ;; Data sizes:     COMMON   BANK0   BANK1   BANK2   BANK3   BANK4
  2986 ;;      Params:         0       0       0       0       0       0
  2987 ;;      Locals:         0       0       0       0       0       0
  2988 ;;      Temps:          0       1       0       0       0       0
  2989 ;;      Totals:         0       1       0       0       0       0
  2990 ;;Total ram usage:        1 bytes
  2991 ;; Hardware stack levels required when called:    6
  2992 ;; This function calls:
  2993 ;;		_Basic_Init
  2994 ;;		_Buzzer_Init
  2995 ;;		_LCD_CursorHome
  2996 ;;		_LCD_Init
  2997 ;;		_Timer1_Init
  2998 ;;		_Timer4_Init
  2999 ;;		_Timer6_Init
  3000 ;;		_mTouch_Init
  3001 ;;		_mTouch_Read
  3002 ;; This function is called by:
  3003 ;;		Startup code after reset
  3004 ;; This function uses a non-reentrant model
  3005 ;;
  3006                           
  3007                           
  3008                           ;psect for function _main
  3009  02A2                     _main:	
  3010                           
  3011                           ;main.c: 20: Basic_Init();
  3012                           
  3013                           ;incstack = 0
  3014                           ; Regs used in _main: [wreg-fsr1h+status,2+status,0+pclath+cstack]
  3015  02A2  3184  2462  3182   	fcall	_Basic_Init
  3016                           
  3017                           ;main.c: 21: LATA6 = 1;
  3018  02A5  0022               	movlb	2	; select bank2
  3019  02A6  170C               	bsf	12,6	;volatile
  3020                           
  3021                           ;main.c: 22: Buzzer_Init();
  3022  02A7  3183  23A8  3182   	fcall	_Buzzer_Init
  3023                           
  3024                           ;main.c: 23: LCD_Init();
  3025  02AA  3181  218B  3182   	fcall	_LCD_Init
  3026                           
  3027                           ;main.c: 24: Timer1_Init();
  3028  02AD  3184  242F  3182   	fcall	_Timer1_Init
  3029                           
  3030                           ;main.c: 25: TMR1ON = 1;;
  3031  02B0  0020               	movlb	0	; select bank0
  3032  02B1  1418               	bsf	24,0	;volatile
  3033                           
  3034                           ;main.c: 26: mTouch_Init();
  3035  02B2  3184  248C  3182   	fcall	_mTouch_Init
  3036                           
  3037                           ;main.c: 27: Timer4_Init();
  3038  02B5  3184  249F  3182   	fcall	_Timer4_Init
  3039                           
  3040                           ;main.c: 28: Timer6_Init();
  3041  02B8  3184  24E3  3182   	fcall	_Timer6_Init
  3042                           
  3043                           ;main.c: 31: mode.ModeNum = 0;
  3044  02BB  01F1               	clrf	_mode+1
  3045  02BC                     l2960:	
  3046                           ;main.c: 33: while(1)
  3047                           
  3048                           
  3049                           ;main.c: 34: {
  3050                           ;main.c: 35: if(mTouch_Read(2)&&(mode.ModeNum<4-1))
  3051  02BC  3002               	movlw	2
  3052  02BD  3182  22EB  3182   	fcall	_mTouch_Read
  3053  02C0  3A00               	xorlw	0
  3054  02C1  1903               	skipnz
  3055  02C2  2ACD               	goto	l2966
  3056  02C3  3003               	movlw	3
  3057  02C4  0271               	subwf	_mode+1,w
  3058  02C5  1803               	skipnc
  3059  02C6  2ACD               	goto	l2966
  3060                           
  3061                           ;main.c: 36: mode.ModeNum++;
  3062  02C7  3001               	movlw	1
  3063  02C8  0020               	movlb	0	; select bank0
  3064  02C9  00E6               	movwf	??_main
  3065  02CA  0866               	movf	??_main,w
  3066  02CB  07F1               	addwf	_mode+1,f
  3067  02CC  2AD9               	goto	l2972
  3068  02CD                     l2966:	
  3069                           
  3070                           ;main.c: 37: else if(mTouch_Read(1)&&(mode.ModeNum>0))
  3071  02CD  3001               	movlw	1
  3072  02CE  3182  22EB  3182   	fcall	_mTouch_Read
  3073  02D1  3A00               	xorlw	0
  3074  02D2  1903               	skipnz
  3075  02D3  2AD9               	goto	l2972
  3076  02D4  0871               	movf	_mode+1,w
  3077  02D5  1903               	btfsc	3,2
  3078  02D6  2AD9               	goto	l2972
  3079                           
  3080                           ;main.c: 38: mode.ModeNum--;
  3081  02D7  3001               	movlw	1
  3082  02D8  02F1               	subwf	_mode+1,f
  3083  02D9                     l2972:	
  3084                           
  3085                           ;main.c: 40: LCD_CursorHome();
  3086  02D9  3184  24D3  3182   	fcall	_LCD_CursorHome
  3087                           
  3088                           ;main.c: 55: }
  3089                           
  3090                           ;main.c: 54: break;
  3091                           
  3092                           ;main.c: 52: case PMTDEVICE:
  3093                           
  3094                           ;main.c: 51: break;
  3095                           
  3096                           ;main.c: 49: case ADJGAIN:
  3097                           
  3098                           ;main.c: 48: break;
  3099                           
  3100                           ;main.c: 46: case SELECTFUNC:
  3101                           
  3102                           ;main.c: 45: break;
  3103                           
  3104                           ;main.c: 42: {
  3105                           ;main.c: 43: case COUNT:
  3106                           
  3107                           ;main.c: 41: switch(mode.ModeNum)
  3108  02DC  0871               	movf	_mode+1,w
  3109                           
  3110                           ; Switch size 1, requested type "space"
  3111                           ; Number of cases is 4, Range of values is 0 to 3
  3112                           ; switch strategies available:
  3113                           ; Name         Instructions Cycles
  3114                           ; simple_byte           13     7 (average)
  3115                           ; direct_byte           14     6 (fixed)
  3116                           ; jumptable            260     6 (fixed)
  3117                           ;	Chosen strategy is simple_byte
  3118  02DD  3A00               	xorlw	0	; case 0
  3119  02DE  1903               	skipnz
  3120  02DF  2ABC               	goto	l2960
  3121  02E0  3A01               	xorlw	1	; case 1
  3122  02E1  1903               	skipnz
  3123  02E2  2ABC               	goto	l2960
  3124  02E3  3A03               	xorlw	3	; case 2
  3125  02E4  1903               	skipnz
  3126  02E5  2ABC               	goto	l2960
  3127  02E6  3A01               	xorlw	1	; case 3
  3128  02E7  1903               	skipnz
  3129  02E8  2ABC               	goto	l2960
  3130  02E9  2ABC               	goto	l2960
  3131  02EA  2ABC               	goto	l2960
  3132  02EB                     __end_of_main:	
  3133                           ;main.c: 56: }
  3134                           ;main.c: 57: return 0;
  3135                           ;	Return value of _main is never used
  3136                           
  3137                           
  3138                           	psect	text1
  3139  02EB                     __ptext1:	
  3140 ;; *************** function _mTouch_Read *****************
  3141 ;; Defined at:
  3142 ;;		line 109 in file "main.c"
  3143 ;; Parameters:    Size  Location     Type
  3144 ;;  chan            1    wreg     unsigned char 
  3145 ;; Auto vars:     Size  Location     Type
  3146 ;;  chan            1    7[BANK0 ] unsigned char 
  3147 ;; Return value:  Size  Location     Type
  3148 ;;                  1    wreg      unsigned char 
  3149 ;; Registers used:
  3150 ;;		wreg, fsr1l, fsr1h, status,2, status,0, pclath, cstack
  3151 ;; Tracked objects:
  3152 ;;		On entry : 0/0
  3153 ;;		On exit  : 0/0
  3154 ;;		Unchanged: 0/0
  3155 ;; Data sizes:     COMMON   BANK0   BANK1   BANK2   BANK3   BANK4
  3156 ;;      Params:         0       0       0       0       0       0
  3157 ;;      Locals:         0       1       0       0       0       0
  3158 ;;      Temps:          0       5       0       0       0       0
  3159 ;;      Totals:         0       6       0       0       0       0
  3160 ;;Total ram usage:        6 bytes
  3161 ;; Hardware stack levels used:    1
  3162 ;; Hardware stack levels required when called:    4
  3163 ;; This function calls:
  3164 ;;		_Buzzer_MiliSecond
  3165 ;; This function is called by:
  3166 ;;		_main
  3167 ;; This function uses a non-reentrant model
  3168 ;;
  3169                           
  3170                           
  3171                           ;psect for function _mTouch_Read
  3172  02EB                     _mTouch_Read:	
  3173                           
  3174                           ;incstack = 0
  3175                           ; Regs used in _mTouch_Read: [wreg+fsr1l+fsr1h+status,2+status,0+pclath+cstack]
  3176                           ;mTouch_Read@chan stored from wreg
  3177  02EB  0020               	movlb	0	; select bank0
  3178  02EC  00E5               	movwf	mTouch_Read@chan
  3179                           
  3180                           ;main.c: 111: if(chan>2)return 0;
  3181  02ED  3003               	movlw	3
  3182  02EE  0265               	subwf	mTouch_Read@chan,w
  3183  02EF  1C03               	skipc
  3184  02F0  2AF3               	goto	l2898
  3185  02F1  3000               	movlw	0
  3186  02F2  0008               	return
  3187  02F3                     l2898:	
  3188                           
  3189                           ;main.c: 113: if(((CPS_PreData[chan]-CPS_Data[chan])>100)&&!mTouch_Interval[chan])
  3190  02F3  0865               	movf	mTouch_Read@chan,w
  3191  02F4  3E2B               	addlw	(low (_CPS_Data| 0))& (0+255)
  3192  02F5  0086               	movwf	6
  3193  02F6  0187               	clrf	7
  3194  02F7  0801               	movf	1,w
  3195  02F8  00E0               	movwf	??_mTouch_Read
  3196  02F9  01E1               	clrf	??_mTouch_Read+1
  3197  02FA  09E0               	comf	??_mTouch_Read,f
  3198  02FB  09E1               	comf	??_mTouch_Read+1,f
  3199  02FC  0AE0               	incf	??_mTouch_Read,f
  3200  02FD  1903               	skipnz
  3201  02FE  0AE1               	incf	??_mTouch_Read+1,f
  3202  02FF  0865               	movf	mTouch_Read@chan,w
  3203  0300  3E2E               	addlw	(low (_CPS_PreData| 0))& (0+255)
  3204  0301  0086               	movwf	6
  3205  0302  0187               	clrf	7
  3206  0303  0801               	movf	1,w
  3207  0304  0760               	addwf	??_mTouch_Read,w
  3208  0305  00E2               	movwf	??_mTouch_Read+2
  3209  0306  0861               	movf	??_mTouch_Read+1,w
  3210  0307  1803               	skipnc
  3211  0308  0A61               	incf	??_mTouch_Read+1,w
  3212  0309  00E3               	movwf	??_mTouch_Read+3
  3213  030A  0863               	movf	??_mTouch_Read+3,w
  3214  030B  3A80               	xorlw	128
  3215  030C  00E4               	movwf	??_mTouch_Read+4
  3216  030D  3080               	movlw	128
  3217  030E  0264               	subwf	??_mTouch_Read+4,w
  3218  030F  1D03               	skipz
  3219  0310  2B13               	goto	u2385
  3220  0311  3065               	movlw	101
  3221  0312  0262               	subwf	??_mTouch_Read+2,w
  3222  0313                     u2385:	
  3223  0313  1C03               	skipc
  3224  0314  2B2D               	goto	l2910
  3225  0315  0020               	movlb	0	; select bank0
  3226  0316  0865               	movf	mTouch_Read@chan,w
  3227  0317  3E28               	addlw	(low (_mTouch_Interval| 0))& (0+255)
  3228  0318  0086               	movwf	6
  3229  0319  0187               	clrf	7
  3230  031A  0801               	movf	1,w
  3231  031B  1D03               	btfss	3,2
  3232  031C  2B2D               	goto	l2910
  3233                           
  3234                           ;main.c: 114: {
  3235                           ;main.c: 115: mTouch_Interval[chan] = 100;
  3236  031D  3064               	movlw	100
  3237  031E  00E0               	movwf	??_mTouch_Read
  3238  031F  0865               	movf	mTouch_Read@chan,w
  3239  0320  3E28               	addlw	(low (_mTouch_Interval| 0))& (0+255)
  3240  0321  0086               	movwf	6
  3241  0322  0187               	clrf	7
  3242  0323  0860               	movf	??_mTouch_Read,w
  3243  0324  0081               	movwf	1
  3244                           
  3245                           ;main.c: 116: Buzzer_MiliSecond(100);
  3246  0325  3064               	movlw	100
  3247  0326  00DE               	movwf	Buzzer_MiliSecond@time
  3248  0327  3000               	movlw	0
  3249  0328  00DF               	movwf	Buzzer_MiliSecond@time+1
  3250  0329  3185  2514         	fcall	_Buzzer_MiliSecond
  3251                           
  3252                           ;main.c: 117: return 1;
  3253  032B  3001               	movlw	1
  3254  032C  0008               	return
  3255  032D                     l2910:	
  3256                           
  3257                           ;main.c: 118: }
  3258                           ;main.c: 119: return 0;
  3259  032D  3000               	movlw	0
  3260  032E  0008               	return
  3261  032F                     __end_of_mTouch_Read:	
  3262                           
  3263                           	psect	text2
  3264  0514                     __ptext2:	
  3265 ;; *************** function _Buzzer_MiliSecond *****************
  3266 ;; Defined at:
  3267 ;;		line 38 in file "Buzzer.c"
  3268 ;; Parameters:    Size  Location     Type
  3269 ;;  time            2    0[BANK0 ] unsigned int 
  3270 ;; Auto vars:     Size  Location     Type
  3271 ;;		None
  3272 ;; Return value:  Size  Location     Type
  3273 ;;                  1    wreg      void 
  3274 ;; Registers used:
  3275 ;;		wreg, status,2, status,0
  3276 ;; Tracked objects:
  3277 ;;		On entry : 0/0
  3278 ;;		On exit  : 0/0
  3279 ;;		Unchanged: 0/0
  3280 ;; Data sizes:     COMMON   BANK0   BANK1   BANK2   BANK3   BANK4
  3281 ;;      Params:         0       2       0       0       0       0
  3282 ;;      Locals:         0       0       0       0       0       0
  3283 ;;      Temps:          0       0       0       0       0       0
  3284 ;;      Totals:         0       2       0       0       0       0
  3285 ;;Total ram usage:        2 bytes
  3286 ;; Hardware stack levels used:    1
  3287 ;; Hardware stack levels required when called:    3
  3288 ;; This function calls:
  3289 ;;		Nothing
  3290 ;; This function is called by:
  3291 ;;		_mTouch_Read
  3292 ;; This function uses a non-reentrant model
  3293 ;;
  3294                           
  3295                           
  3296                           ;psect for function _Buzzer_MiliSecond
  3297  0514                     _Buzzer_MiliSecond:	
  3298                           
  3299                           ;Buzzer.c: 40: if(count==0)
  3300                           
  3301                           ;incstack = 0
  3302                           ; Regs used in _Buzzer_MiliSecond: [wreg+status,2+status,0]
  3303  0514  0872               	movf	_count,w
  3304  0515  0473               	iorwf	_count+1,w
  3305  0516  1D03               	btfss	3,2
  3306  0517  0008               	return
  3307                           
  3308                           ;Buzzer.c: 41: count = time;
  3309  0518  0020               	movlb	0	; select bank0
  3310  0519  085F               	movf	Buzzer_MiliSecond@time+1,w
  3311  051A  00F3               	movwf	_count+1
  3312  051B  085E               	movf	Buzzer_MiliSecond@time,w
  3313  051C  00F2               	movwf	_count
  3314  051D  0008               	return
  3315  051E                     __end_of_Buzzer_MiliSecond:	
  3316                           
  3317                           	psect	text3
  3318  048C                     __ptext3:	
  3319 ;; *************** function _mTouch_Init *****************
  3320 ;; Defined at:
  3321 ;;		line 12 in file "mTouch.c"
  3322 ;; Parameters:    Size  Location     Type
  3323 ;;		None
  3324 ;; Auto vars:     Size  Location     Type
  3325 ;;		None
  3326 ;; Return value:  Size  Location     Type
  3327 ;;                  1    wreg      void 
  3328 ;; Registers used:
  3329 ;;		wreg, status,2, status,0, pclath, cstack
  3330 ;; Tracked objects:
  3331 ;;		On entry : 0/0
  3332 ;;		On exit  : 0/0
  3333 ;;		Unchanged: 0/0
  3334 ;; Data sizes:     COMMON   BANK0   BANK1   BANK2   BANK3   BANK4
  3335 ;;      Params:         0       0       0       0       0       0
  3336 ;;      Locals:         0       0       0       0       0       0
  3337 ;;      Temps:          0       1       0       0       0       0
  3338 ;;      Totals:         0       1       0       0       0       0
  3339 ;;Total ram usage:        1 bytes
  3340 ;; Hardware stack levels used:    1
  3341 ;; Hardware stack levels required when called:    4
  3342 ;; This function calls:
  3343 ;;		_mTouch_PortInit
  3344 ;; This function is called by:
  3345 ;;		_main
  3346 ;; This function uses a non-reentrant model
  3347 ;;
  3348                           
  3349                           
  3350                           ;psect for function _mTouch_Init
  3351  048C                     _mTouch_Init:	
  3352                           
  3353                           ;mTouch.c: 14: mTouch_PortInit();
  3354                           
  3355                           ;incstack = 0
  3356                           ; Regs used in _mTouch_Init: [wreg+status,2+status,0+pclath+cstack]
  3357  048C  3184  24F1         	fcall	_mTouch_PortInit
  3358                           
  3359                           ;mTouch.c: 17: OPTION_REG |= (0x0<<0);
  3360  048E  0021               	movlb	1	; select bank1
  3361  048F  0815               	movf	21,w	;volatile
  3362                           
  3363                           ;mTouch.c: 18: OPTION_REG |= (0x1<<3);
  3364  0490  1595               	bsf	21,3	;volatile
  3365                           
  3366                           ;mTouch.c: 19: OPTION_REG |= (0x1<<5);
  3367  0491  1695               	bsf	21,5	;volatile
  3368                           
  3369                           ;mTouch.c: 20: TMR0 = 0x00;
  3370  0492  0020               	movlb	0	; select bank0
  3371  0493  0195               	clrf	21	;volatile
  3372                           
  3373                           ;mTouch.c: 23: CPSCON0 |= (0x01<<0);
  3374  0494  141E               	bsf	30,0	;volatile
  3375                           
  3376                           ;mTouch.c: 24: CPSCON0 |= (0x03<<2);
  3377  0495  300C               	movlw	12
  3378  0496  00DF               	movwf	??_mTouch_Init
  3379  0497  085F               	movf	??_mTouch_Init,w
  3380  0498  049E               	iorwf	30,f	;volatile
  3381                           
  3382                           ;mTouch.c: 25: CPSCON0 &= ~(0x01<<7);;
  3383  0499  307F               	movlw	127
  3384  049A  00DF               	movwf	??_mTouch_Init
  3385  049B  085F               	movf	??_mTouch_Init,w
  3386  049C  059E               	andwf	30,f	;volatile
  3387                           
  3388                           ;mTouch.c: 26: CPSCON1 = (uint8_t)0x00;
  3389  049D  019F               	clrf	31	;volatile
  3390  049E  0008               	return
  3391  049F                     __end_of_mTouch_Init:	
  3392                           
  3393                           	psect	text4
  3394  04F1                     __ptext4:	
  3395 ;; *************** function _mTouch_PortInit *****************
  3396 ;; Defined at:
  3397 ;;		line 6 in file "mTouch.c"
  3398 ;; Parameters:    Size  Location     Type
  3399 ;;		None
  3400 ;; Auto vars:     Size  Location     Type
  3401 ;;		None
  3402 ;; Return value:  Size  Location     Type
  3403 ;;                  1    wreg      void 
  3404 ;; Registers used:
  3405 ;;		wreg, status,2, status,0
  3406 ;; Tracked objects:
  3407 ;;		On entry : 0/0
  3408 ;;		On exit  : 0/0
  3409 ;;		Unchanged: 0/0
  3410 ;; Data sizes:     COMMON   BANK0   BANK1   BANK2   BANK3   BANK4
  3411 ;;      Params:         0       0       0       0       0       0
  3412 ;;      Locals:         0       0       0       0       0       0
  3413 ;;      Temps:          0       1       0       0       0       0
  3414 ;;      Totals:         0       1       0       0       0       0
  3415 ;;Total ram usage:        1 bytes
  3416 ;; Hardware stack levels used:    1
  3417 ;; Hardware stack levels required when called:    3
  3418 ;; This function calls:
  3419 ;;		Nothing
  3420 ;; This function is called by:
  3421 ;;		_mTouch_Init
  3422 ;; This function uses a non-reentrant model
  3423 ;;
  3424                           
  3425                           
  3426                           ;psect for function _mTouch_PortInit
  3427  04F1                     _mTouch_PortInit:	
  3428                           
  3429                           ;mTouch.c: 8: TRISA |= (0x07);
  3430                           
  3431                           ;incstack = 0
  3432                           ; Regs used in _mTouch_PortInit: [wreg+status,2+status,0]
  3433  04F1  3007               	movlw	7
  3434  04F2  0020               	movlb	0	; select bank0
  3435  04F3  00DE               	movwf	??_mTouch_PortInit
  3436  04F4  085E               	movf	??_mTouch_PortInit,w
  3437  04F5  0021               	movlb	1	; select bank1
  3438  04F6  048C               	iorwf	12,f	;volatile
  3439                           
  3440                           ;mTouch.c: 9: ANSELA |= (0x07);
  3441  04F7  3007               	movlw	7
  3442  04F8  0020               	movlb	0	; select bank0
  3443  04F9  00DE               	movwf	??_mTouch_PortInit
  3444  04FA  085E               	movf	??_mTouch_PortInit,w
  3445  04FB  0023               	movlb	3	; select bank3
  3446  04FC  048C               	iorwf	12,f	;volatile
  3447  04FD  0008               	return
  3448  04FE                     __end_of_mTouch_PortInit:	
  3449                           
  3450                           	psect	text5
  3451  04E3                     __ptext5:	
  3452 ;; *************** function _Timer6_Init *****************
  3453 ;; Defined at:
  3454 ;;		line 3 in file "Timer6.c"
  3455 ;; Parameters:    Size  Location     Type
  3456 ;;		None
  3457 ;; Auto vars:     Size  Location     Type
  3458 ;;		None
  3459 ;; Return value:  Size  Location     Type
  3460 ;;                  1    wreg      void 
  3461 ;; Registers used:
  3462 ;;		wreg, status,2
  3463 ;; Tracked objects:
  3464 ;;		On entry : 0/0
  3465 ;;		On exit  : 0/0
  3466 ;;		Unchanged: 0/0
  3467 ;; Data sizes:     COMMON   BANK0   BANK1   BANK2   BANK3   BANK4
  3468 ;;      Params:         0       0       0       0       0       0
  3469 ;;      Locals:         0       0       0       0       0       0
  3470 ;;      Temps:          0       0       0       0       0       0
  3471 ;;      Totals:         0       0       0       0       0       0
  3472 ;;Total ram usage:        0 bytes
  3473 ;; Hardware stack levels used:    1
  3474 ;; Hardware stack levels required when called:    3
  3475 ;; This function calls:
  3476 ;;		Nothing
  3477 ;; This function is called by:
  3478 ;;		_main
  3479 ;; This function uses a non-reentrant model
  3480 ;;
  3481                           
  3482                           
  3483                           ;psect for function _Timer6_Init
  3484  04E3                     _Timer6_Init:	
  3485                           
  3486                           ;Timer6.c: 5: PR6 = 50;
  3487                           
  3488                           ;incstack = 0
  3489                           ; Regs used in _Timer6_Init: [wreg+status,2]
  3490  04E3  3032               	movlw	50
  3491  04E4  0028               	movlb	8	; select bank8
  3492  04E5  009D               	movwf	29	;volatile
  3493                           
  3494                           ;Timer6.c: 6: TMR6 = 0x00;
  3495  04E6  019C               	clrf	28	;volatile
  3496                           
  3497                           ;Timer6.c: 7: T6CON |= (0x02<<0);
  3498  04E7  149E               	bsf	30,1	;volatile
  3499                           
  3500                           ;Timer6.c: 8: T6CON |= (0x00<<3);
  3501  04E8  081E               	movf	30,w	;volatile
  3502                           
  3503                           ;Timer6.c: 9: T6CON |= (0x01<<2);
  3504  04E9  151E               	bsf	30,2	;volatile
  3505                           
  3506                           ;Timer6.c: 11: TMR6IF = 0;
  3507  04EA  0020               	movlb	0	; select bank0
  3508  04EB  1193               	bcf	19,3	;volatile
  3509                           
  3510                           ;Timer6.c: 12: TMR6IE = 1;
  3511  04EC  0021               	movlb	1	; select bank1
  3512  04ED  1593               	bsf	19,3	;volatile
  3513                           
  3514                           ;Timer6.c: 13: PEIE = 1;
  3515  04EE  170B               	bsf	11,6	;volatile
  3516                           
  3517                           ;Timer6.c: 14: GIE = 1;
  3518  04EF  178B               	bsf	11,7	;volatile
  3519  04F0  0008               	return
  3520  04F1                     __end_of_Timer6_Init:	
  3521                           
  3522                           	psect	text6
  3523  049F                     __ptext6:	
  3524 ;; *************** function _Timer4_Init *****************
  3525 ;; Defined at:
  3526 ;;		line 3 in file "Timer4.c"
  3527 ;; Parameters:    Size  Location     Type
  3528 ;;		None
  3529 ;; Auto vars:     Size  Location     Type
  3530 ;;		None
  3531 ;; Return value:  Size  Location     Type
  3532 ;;                  1    wreg      void 
  3533 ;; Registers used:
  3534 ;;		wreg, status,2, status,0
  3535 ;; Tracked objects:
  3536 ;;		On entry : 0/0
  3537 ;;		On exit  : 0/0
  3538 ;;		Unchanged: 0/0
  3539 ;; Data sizes:     COMMON   BANK0   BANK1   BANK2   BANK3   BANK4
  3540 ;;      Params:         0       0       0       0       0       0
  3541 ;;      Locals:         0       0       0       0       0       0
  3542 ;;      Temps:          0       1       0       0       0       0
  3543 ;;      Totals:         0       1       0       0       0       0
  3544 ;;Total ram usage:        1 bytes
  3545 ;; Hardware stack levels used:    1
  3546 ;; Hardware stack levels required when called:    3
  3547 ;; This function calls:
  3548 ;;		Nothing
  3549 ;; This function is called by:
  3550 ;;		_main
  3551 ;; This function uses a non-reentrant model
  3552 ;;
  3553                           
  3554                           
  3555                           ;psect for function _Timer4_Init
  3556  049F                     _Timer4_Init:	
  3557                           
  3558                           ;Timer4.c: 5: PR4 = 0x7D;
  3559                           
  3560                           ;incstack = 0
  3561                           ; Regs used in _Timer4_Init: [wreg+status,2+status,0]
  3562  049F  307D               	movlw	125
  3563  04A0  0028               	movlb	8	; select bank8
  3564  04A1  0096               	movwf	22	;volatile
  3565                           
  3566                           ;Timer4.c: 6: TMR4 = 0x00;
  3567  04A2  0195               	clrf	21	;volatile
  3568                           
  3569                           ;Timer4.c: 7: T4CON |= (0x03<<0);
  3570  04A3  3003               	movlw	3
  3571  04A4  0020               	movlb	0	; select bank0
  3572  04A5  00DE               	movwf	??_Timer4_Init
  3573  04A6  085E               	movf	??_Timer4_Init,w
  3574  04A7  0028               	movlb	8	; select bank8
  3575  04A8  0497               	iorwf	23,f	;volatile
  3576                           
  3577                           ;Timer4.c: 8: T4CON |= (0x00<<3);
  3578  04A9  0817               	movf	23,w	;volatile
  3579                           
  3580                           ;Timer4.c: 9: T4CON |= (0x01<<2);
  3581  04AA  1517               	bsf	23,2	;volatile
  3582                           
  3583                           ;Timer4.c: 11: TMR4IF = 0;
  3584  04AB  0020               	movlb	0	; select bank0
  3585  04AC  1093               	bcf	19,1	;volatile
  3586                           
  3587                           ;Timer4.c: 12: TMR4IE = 1;
  3588  04AD  0021               	movlb	1	; select bank1
  3589  04AE  1493               	bsf	19,1	;volatile
  3590                           
  3591                           ;Timer4.c: 13: PEIE = 1;
  3592  04AF  170B               	bsf	11,6	;volatile
  3593                           
  3594                           ;Timer4.c: 14: GIE = 1;
  3595  04B0  178B               	bsf	11,7	;volatile
  3596  04B1  0008               	return
  3597  04B2                     __end_of_Timer4_Init:	
  3598                           
  3599                           	psect	text7
  3600  042F                     __ptext7:	
  3601 ;; *************** function _Timer1_Init *****************
  3602 ;; Defined at:
  3603 ;;		line 6 in file "Timer1.c"
  3604 ;; Parameters:    Size  Location     Type
  3605 ;;		None
  3606 ;; Auto vars:     Size  Location     Type
  3607 ;;		None
  3608 ;; Return value:  Size  Location     Type
  3609 ;;                  1    wreg      void 
  3610 ;; Registers used:
  3611 ;;		wreg, status,2, status,0
  3612 ;; Tracked objects:
  3613 ;;		On entry : 0/0
  3614 ;;		On exit  : 0/0
  3615 ;;		Unchanged: 0/0
  3616 ;; Data sizes:     COMMON   BANK0   BANK1   BANK2   BANK3   BANK4
  3617 ;;      Params:         0       0       0       0       0       0
  3618 ;;      Locals:         0       0       0       0       0       0
  3619 ;;      Temps:          0       1       0       0       0       0
  3620 ;;      Totals:         0       1       0       0       0       0
  3621 ;;Total ram usage:        1 bytes
  3622 ;; Hardware stack levels used:    1
  3623 ;; Hardware stack levels required when called:    3
  3624 ;; This function calls:
  3625 ;;		Nothing
  3626 ;; This function is called by:
  3627 ;;		_main
  3628 ;; This function uses a non-reentrant model
  3629 ;;
  3630                           
  3631                           
  3632                           ;psect for function _Timer1_Init
  3633  042F                     _Timer1_Init:	
  3634                           
  3635                           ;Timer1.c: 8: TRISB |= (1<<6);
  3636                           
  3637                           ;incstack = 0
  3638                           ; Regs used in _Timer1_Init: [wreg+status,2+status,0]
  3639  042F  0021               	movlb	1	; select bank1
  3640  0430  170D               	bsf	13,6	;volatile
  3641                           
  3642                           ;Timer1.c: 9: ANSELB &= ~(1<<6);
  3643  0431  30BF               	movlw	191
  3644  0432  0020               	movlb	0	; select bank0
  3645  0433  00DE               	movwf	??_Timer1_Init
  3646  0434  085E               	movf	??_Timer1_Init,w
  3647  0435  0023               	movlb	3	; select bank3
  3648  0436  058D               	andwf	13,f	;volatile
  3649                           
  3650                           ;Timer1.c: 11: T1CON |= (0x01<<2);
  3651  0437  0020               	movlb	0	; select bank0
  3652  0438  1518               	bsf	24,2	;volatile
  3653                           
  3654                           ;Timer1.c: 12: T1CON &= ~(0x01<<3);
  3655  0439  30F7               	movlw	247
  3656  043A  00DE               	movwf	??_Timer1_Init
  3657  043B  085E               	movf	??_Timer1_Init,w
  3658  043C  0598               	andwf	24,f	;volatile
  3659                           
  3660                           ;Timer1.c: 13: T1CON |= (0x00<<4);
  3661  043D  0818               	movf	24,w	;volatile
  3662                           
  3663                           ;Timer1.c: 14: T1CON |= (0x02<<6);
  3664  043E  1798               	bsf	24,7	;volatile
  3665                           
  3666                           ;Timer1.c: 16: T1GCON = 0x00;
  3667  043F  0199               	clrf	25	;volatile
  3668                           
  3669                           ;Timer1.c: 18: TMR1 = 0xFFFF-10;
  3670  0440  30FF               	movlw	255
  3671  0441  0097               	movwf	23	;volatile
  3672  0442  30F5               	movlw	245
  3673  0443  0096               	movwf	22	;volatile
  3674                           
  3675                           ;Timer1.c: 20: TMR1IF = 0;
  3676  0444  1011               	bcf	17,0	;volatile
  3677                           
  3678                           ;Timer1.c: 21: TMR1IE = 1;
  3679  0445  0021               	movlb	1	; select bank1
  3680  0446  1411               	bsf	17,0	;volatile
  3681                           
  3682                           ;Timer1.c: 22: PEIE = 1;
  3683  0447  170B               	bsf	11,6	;volatile
  3684                           
  3685                           ;Timer1.c: 23: GIE = 1;
  3686  0448  178B               	bsf	11,7	;volatile
  3687  0449  0008               	return
  3688  044A                     __end_of_Timer1_Init:	
  3689                           
  3690                           	psect	text8
  3691  018B                     __ptext8:	
  3692 ;; *************** function _LCD_Init *****************
  3693 ;; Defined at:
  3694 ;;		line 28 in file "LCD.c"
  3695 ;; Parameters:    Size  Location     Type
  3696 ;;		None
  3697 ;; Auto vars:     Size  Location     Type
  3698 ;;		None
  3699 ;; Return value:  Size  Location     Type
  3700 ;;                  1    wreg      void 
  3701 ;; Registers used:
  3702 ;;		wreg, status,2, status,0, pclath, cstack
  3703 ;; Tracked objects:
  3704 ;;		On entry : 0/0
  3705 ;;		On exit  : 0/0
  3706 ;;		Unchanged: 0/0
  3707 ;; Data sizes:     COMMON   BANK0   BANK1   BANK2   BANK3   BANK4
  3708 ;;      Params:         0       0       0       0       0       0
  3709 ;;      Locals:         0       0       0       0       0       0
  3710 ;;      Temps:          0       2       0       0       0       0
  3711 ;;      Totals:         0       2       0       0       0       0
  3712 ;;Total ram usage:        2 bytes
  3713 ;; Hardware stack levels used:    1
  3714 ;; Hardware stack levels required when called:    5
  3715 ;; This function calls:
  3716 ;;		_LCD_DisplayClear
  3717 ;;		_LCD_WriteData
  3718 ;; This function is called by:
  3719 ;;		_main
  3720 ;; This function uses a non-reentrant model
  3721 ;;
  3722                           
  3723                           
  3724                           ;psect for function _LCD_Init
  3725  018B                     _LCD_Init:	
  3726                           
  3727                           ;LCD.c: 30: LATA3 = 0;
  3728                           
  3729                           ;incstack = 0
  3730                           ; Regs used in _LCD_Init: [wreg+status,2+status,0+pclath+cstack]
  3731  018B  0022               	movlb	2	; select bank2
  3732  018C  118C               	bcf	12,3	;volatile
  3733                           
  3734                           ;LCD.c: 31: LATA4 = 0;
  3735  018D  120C               	bcf	12,4	;volatile
  3736                           
  3737                           ;LCD.c: 33: _delay((unsigned long)((30)*(32000000/4000.0)));
  3738  018E  3002               	movlw	2
  3739  018F  0020               	movlb	0	; select bank0
  3740  0190  00E3               	movwf	??_LCD_Init+1
  3741  0191  3038               	movlw	56
  3742  0192  00E2               	movwf	??_LCD_Init
  3743  0193  30AD               	movlw	173
  3744  0194                     u2497:	
  3745  0194  0B89               	decfsz	9,f
  3746  0195  2994               	goto	u2497
  3747  0196  0BE2               	decfsz	??_LCD_Init,f
  3748  0197  2994               	goto	u2497
  3749  0198  0BE3               	decfsz	??_LCD_Init+1,f
  3750  0199  2994               	goto	u2497
  3751                           
  3752                           ;LCD.c: 34: PORTB = ( ((0x03&0x0C)<<1)|(0x03&0x03) );
  3753  019A  3003               	movlw	3
  3754  019B  0020               	movlb	0	; select bank0
  3755  019C  008D               	movwf	13	;volatile
  3756                           
  3757                           ;LCD.c: 35: {LATA4 = 1; _delay((unsigned long)((1)*(32000000/4000000.0))); LATA4 = 0; _d
      +                          elay((unsigned long)((1)*(32000000/4000000.0)));};
  3758  019D  0022               	movlb	2	; select bank2
  3759  019E  160C               	bsf	12,4	;volatile
  3760  019F  3200               	nop2	;2 cycle nop
  3761  01A0  3200               	nop2	;2 cycle nop
  3762  01A1  3200               	nop2	;2 cycle nop
  3763  01A2  3200               	nop2	;2 cycle nop
  3764  01A3  0022               	movlb	2	; select bank2
  3765  01A4  120C               	bcf	12,4	;volatile
  3766  01A5  3200               	nop2	;2 cycle nop
  3767  01A6  3200               	nop2	;2 cycle nop
  3768  01A7  3200               	nop2	;2 cycle nop
  3769  01A8  3200               	nop2	;2 cycle nop
  3770                           
  3771                           ;LCD.c: 36: _delay((unsigned long)((5)*(32000000/4000.0)));
  3772  01A9  3034               	movlw	52
  3773  01AA  0020               	movlb	0	; select bank0
  3774  01AB  00E2               	movwf	??_LCD_Init
  3775  01AC  30F1               	movlw	241
  3776  01AD                     u2507:	
  3777  01AD  0B89               	decfsz	9,f
  3778  01AE  29AD               	goto	u2507
  3779  01AF  0BE2               	decfsz	??_LCD_Init,f
  3780  01B0  29AD               	goto	u2507
  3781  01B1  3200               	nop2
  3782                           
  3783                           ;LCD.c: 37: {LATA4 = 1; _delay((unsigned long)((1)*(32000000/4000000.0))); LATA4 = 0; _d
      +                          elay((unsigned long)((1)*(32000000/4000000.0)));};
  3784  01B2  0022               	movlb	2	; select bank2
  3785  01B3  160C               	bsf	12,4	;volatile
  3786  01B4  3200               	nop2	;2 cycle nop
  3787  01B5  3200               	nop2	;2 cycle nop
  3788  01B6  3200               	nop2	;2 cycle nop
  3789  01B7  3200               	nop2	;2 cycle nop
  3790  01B8  0022               	movlb	2	; select bank2
  3791  01B9  120C               	bcf	12,4	;volatile
  3792  01BA  3200               	nop2	;2 cycle nop
  3793  01BB  3200               	nop2	;2 cycle nop
  3794  01BC  3200               	nop2	;2 cycle nop
  3795  01BD  3200               	nop2	;2 cycle nop
  3796                           
  3797                           ;LCD.c: 38: _delay((unsigned long)((400)*(32000000/4000000.0)));
  3798  01BE  3005               	movlw	5
  3799  01BF  0020               	movlb	0	; select bank0
  3800  01C0  00E2               	movwf	??_LCD_Init
  3801  01C1  3026               	movlw	38
  3802  01C2                     u2517:	
  3803  01C2  0B89               	decfsz	9,f
  3804  01C3  29C2               	goto	u2517
  3805  01C4  0BE2               	decfsz	??_LCD_Init,f
  3806  01C5  29C2               	goto	u2517
  3807  01C6  0000               	nop
  3808                           
  3809                           ;LCD.c: 39: {LATA4 = 1; _delay((unsigned long)((1)*(32000000/4000000.0))); LATA4 = 0; _d
      +                          elay((unsigned long)((1)*(32000000/4000000.0)));};
  3810  01C7  0022               	movlb	2	; select bank2
  3811  01C8  160C               	bsf	12,4	;volatile
  3812  01C9  3200               	nop2	;2 cycle nop
  3813  01CA  3200               	nop2	;2 cycle nop
  3814  01CB  3200               	nop2	;2 cycle nop
  3815  01CC  3200               	nop2	;2 cycle nop
  3816  01CD  0022               	movlb	2	; select bank2
  3817  01CE  120C               	bcf	12,4	;volatile
  3818  01CF  3200               	nop2	;2 cycle nop
  3819  01D0  3200               	nop2	;2 cycle nop
  3820  01D1  3200               	nop2	;2 cycle nop
  3821  01D2  3200               	nop2	;2 cycle nop
  3822                           
  3823                           ;LCD.c: 40: _delay((unsigned long)((400)*(32000000/4000000.0)));
  3824  01D3  3005               	movlw	5
  3825  01D4  0020               	movlb	0	; select bank0
  3826  01D5  00E2               	movwf	??_LCD_Init
  3827  01D6  3026               	movlw	38
  3828  01D7                     u2527:	
  3829  01D7  0B89               	decfsz	9,f
  3830  01D8  29D7               	goto	u2527
  3831  01D9  0BE2               	decfsz	??_LCD_Init,f
  3832  01DA  29D7               	goto	u2527
  3833  01DB  0000               	nop
  3834                           
  3835                           ;LCD.c: 41: PORTB = ( ((0x02&0x0C)<<1)|(0x02&0x03) );
  3836  01DC  3002               	movlw	2
  3837  01DD  0020               	movlb	0	; select bank0
  3838  01DE  008D               	movwf	13	;volatile
  3839                           
  3840                           ;LCD.c: 42: {LATA4 = 1; _delay((unsigned long)((1)*(32000000/4000000.0))); LATA4 = 0; _d
      +                          elay((unsigned long)((1)*(32000000/4000000.0)));};
  3841  01DF  0022               	movlb	2	; select bank2
  3842  01E0  160C               	bsf	12,4	;volatile
  3843  01E1  3200               	nop2	;2 cycle nop
  3844  01E2  3200               	nop2	;2 cycle nop
  3845  01E3  3200               	nop2	;2 cycle nop
  3846  01E4  3200               	nop2	;2 cycle nop
  3847  01E5  0022               	movlb	2	; select bank2
  3848  01E6  120C               	bcf	12,4	;volatile
  3849  01E7  3200               	nop2	;2 cycle nop
  3850  01E8  3200               	nop2	;2 cycle nop
  3851  01E9  3200               	nop2	;2 cycle nop
  3852  01EA  3200               	nop2	;2 cycle nop
  3853                           
  3854                           ;LCD.c: 44: LCD_WriteData(0x28);
  3855  01EB  3028               	movlw	40
  3856  01EC  3183  232F  3181   	fcall	_LCD_WriteData
  3857                           
  3858                           ;LCD.c: 45: LCD_WriteData(0x0c);
  3859  01EF  300C               	movlw	12
  3860  01F0  3183  232F  3181   	fcall	_LCD_WriteData
  3861                           
  3862                           ;LCD.c: 46: LCD_DisplayClear();
  3863  01F3  3184  24C3  3181   	fcall	_LCD_DisplayClear
  3864                           
  3865                           ;LCD.c: 47: LCD_WriteData(0x06);
  3866  01F6  3006               	movlw	6
  3867  01F7  3183  232F         	fcall	_LCD_WriteData
  3868  01F9  0008               	return
  3869  01FA                     __end_of_LCD_Init:	
  3870                           
  3871                           	psect	text9
  3872  04C3                     __ptext9:	
  3873 ;; *************** function _LCD_DisplayClear *****************
  3874 ;; Defined at:
  3875 ;;		line 73 in file "LCD.c"
  3876 ;; Parameters:    Size  Location     Type
  3877 ;;		None
  3878 ;; Auto vars:     Size  Location     Type
  3879 ;;		None
  3880 ;; Return value:  Size  Location     Type
  3881 ;;                  1    wreg      void 
  3882 ;; Registers used:
  3883 ;;		wreg, status,2, status,0, pclath, cstack
  3884 ;; Tracked objects:
  3885 ;;		On entry : 0/0
  3886 ;;		On exit  : 0/0
  3887 ;;		Unchanged: 0/0
  3888 ;; Data sizes:     COMMON   BANK0   BANK1   BANK2   BANK3   BANK4
  3889 ;;      Params:         0       0       0       0       0       0
  3890 ;;      Locals:         0       0       0       0       0       0
  3891 ;;      Temps:          0       1       0       0       0       0
  3892 ;;      Totals:         0       1       0       0       0       0
  3893 ;;Total ram usage:        1 bytes
  3894 ;; Hardware stack levels used:    1
  3895 ;; Hardware stack levels required when called:    4
  3896 ;; This function calls:
  3897 ;;		_LCD_WriteData
  3898 ;; This function is called by:
  3899 ;;		_LCD_Init
  3900 ;; This function uses a non-reentrant model
  3901 ;;
  3902                           
  3903                           
  3904                           ;psect for function _LCD_DisplayClear
  3905  04C3                     _LCD_DisplayClear:	
  3906                           
  3907                           ;LCD.c: 75: LATA3 = 0;
  3908                           
  3909                           ;incstack = 0
  3910                           ; Regs used in _LCD_DisplayClear: [wreg+status,2+status,0+pclath+cstack]
  3911  04C3  0022               	movlb	2	; select bank2
  3912  04C4  118C               	bcf	12,3	;volatile
  3913                           
  3914                           ;LCD.c: 76: LCD_WriteData(0x01);
  3915  04C5  3001               	movlw	1
  3916  04C6  3183  232F  3184   	fcall	_LCD_WriteData
  3917                           
  3918                           ;LCD.c: 77: _delay((unsigned long)((2)*(32000000/4000.0)));
  3919  04C9  3015               	movlw	21
  3920  04CA  0020               	movlb	0	; select bank0
  3921  04CB  00E1               	movwf	??_LCD_DisplayClear
  3922  04CC  30C6               	movlw	198
  3923  04CD                     u2537:	
  3924  04CD  0B89               	decfsz	9,f
  3925  04CE  2CCD               	goto	u2537
  3926  04CF  0BE1               	decfsz	??_LCD_DisplayClear,f
  3927  04D0  2CCD               	goto	u2537
  3928  04D1  0000               	nop
  3929  04D2  0008               	return
  3930  04D3                     __end_of_LCD_DisplayClear:	
  3931                           
  3932                           	psect	text10
  3933  04D3                     __ptext10:	
  3934 ;; *************** function _LCD_CursorHome *****************
  3935 ;; Defined at:
  3936 ;;		line 84 in file "LCD.c"
  3937 ;; Parameters:    Size  Location     Type
  3938 ;;		None
  3939 ;; Auto vars:     Size  Location     Type
  3940 ;;		None
  3941 ;; Return value:  Size  Location     Type
  3942 ;;                  1    wreg      void 
  3943 ;; Registers used:
  3944 ;;		wreg, status,2, status,0, pclath, cstack
  3945 ;; Tracked objects:
  3946 ;;		On entry : 0/0
  3947 ;;		On exit  : 0/0
  3948 ;;		Unchanged: 0/0
  3949 ;; Data sizes:     COMMON   BANK0   BANK1   BANK2   BANK3   BANK4
  3950 ;;      Params:         0       0       0       0       0       0
  3951 ;;      Locals:         0       0       0       0       0       0
  3952 ;;      Temps:          0       1       0       0       0       0
  3953 ;;      Totals:         0       1       0       0       0       0
  3954 ;;Total ram usage:        1 bytes
  3955 ;; Hardware stack levels used:    1
  3956 ;; Hardware stack levels required when called:    4
  3957 ;; This function calls:
  3958 ;;		_LCD_WriteData
  3959 ;; This function is called by:
  3960 ;;		_main
  3961 ;; This function uses a non-reentrant model
  3962 ;;
  3963                           
  3964                           
  3965                           ;psect for function _LCD_CursorHome
  3966  04D3                     _LCD_CursorHome:	
  3967                           
  3968                           ;LCD.c: 86: LATA3 = 0;
  3969                           
  3970                           ;incstack = 0
  3971                           ; Regs used in _LCD_CursorHome: [wreg+status,2+status,0+pclath+cstack]
  3972  04D3  0022               	movlb	2	; select bank2
  3973  04D4  118C               	bcf	12,3	;volatile
  3974                           
  3975                           ;LCD.c: 87: LCD_WriteData(0x02);
  3976  04D5  3002               	movlw	2
  3977  04D6  3183  232F  3184   	fcall	_LCD_WriteData
  3978                           
  3979                           ;LCD.c: 88: _delay((unsigned long)((2)*(32000000/4000.0)));
  3980  04D9  3015               	movlw	21
  3981  04DA  0020               	movlb	0	; select bank0
  3982  04DB  00E1               	movwf	??_LCD_CursorHome
  3983  04DC  30C6               	movlw	198
  3984  04DD                     u2547:	
  3985  04DD  0B89               	decfsz	9,f
  3986  04DE  2CDD               	goto	u2547
  3987  04DF  0BE1               	decfsz	??_LCD_CursorHome,f
  3988  04E0  2CDD               	goto	u2547
  3989  04E1  0000               	nop
  3990  04E2  0008               	return
  3991  04E3                     __end_of_LCD_CursorHome:	
  3992                           
  3993                           	psect	text11
  3994  032F                     __ptext11:	
  3995 ;; *************** function _LCD_WriteData *****************
  3996 ;; Defined at:
  3997 ;;		line 15 in file "LCD.c"
  3998 ;; Parameters:    Size  Location     Type
  3999 ;;  point           1    wreg     char 
  4000 ;; Auto vars:     Size  Location     Type
  4001 ;;  point           1    2[BANK0 ] char 
  4002 ;; Return value:  Size  Location     Type
  4003 ;;                  1    wreg      void 
  4004 ;; Registers used:
  4005 ;;		wreg, status,2, status,0
  4006 ;; Tracked objects:
  4007 ;;		On entry : 0/0
  4008 ;;		On exit  : 0/0
  4009 ;;		Unchanged: 0/0
  4010 ;; Data sizes:     COMMON   BANK0   BANK1   BANK2   BANK3   BANK4
  4011 ;;      Params:         0       0       0       0       0       0
  4012 ;;      Locals:         0       1       0       0       0       0
  4013 ;;      Temps:          0       2       0       0       0       0
  4014 ;;      Totals:         0       3       0       0       0       0
  4015 ;;Total ram usage:        3 bytes
  4016 ;; Hardware stack levels used:    1
  4017 ;; Hardware stack levels required when called:    3
  4018 ;; This function calls:
  4019 ;;		Nothing
  4020 ;; This function is called by:
  4021 ;;		_LCD_Init
  4022 ;;		_LCD_DisplayClear
  4023 ;;		_LCD_CursorHome
  4024 ;;		_LCD_Put
  4025 ;;		_putch
  4026 ;;		_LCD_CursorPosition
  4027 ;;		_LCD_CursorShift
  4028 ;;		_LCD_DispShift
  4029 ;; This function uses a non-reentrant model
  4030 ;;
  4031                           
  4032                           
  4033                           ;psect for function _LCD_WriteData
  4034  032F                     _LCD_WriteData:	
  4035                           
  4036                           ;incstack = 0
  4037                           ; Regs used in _LCD_WriteData: [wreg+status,2+status,0]
  4038                           ;LCD_WriteData@point stored from wreg
  4039  032F  0020               	movlb	0	; select bank0
  4040  0330  00E0               	movwf	LCD_WriteData@point
  4041                           
  4042                           ;LCD.c: 17: _delay((unsigned long)((80)*(32000000/4000000.0)));
  4043  0331  30D5               	movlw	213
  4044  0332                     u2557:	
  4045  0332  0B89               	decfsz	9,f
  4046  0333  2B32               	goto	u2557
  4047  0334  0000               	nop
  4048                           
  4049                           ;LCD.c: 18: PORTB = ( (((point>>4)&0x0F&0x0C)<<1)|((point>>4)&0x0F&0x03) );
  4050  0335  0020               	movlb	0	; select bank0
  4051  0336  0860               	movf	LCD_WriteData@point,w
  4052  0337  00DE               	movwf	??_LCD_WriteData
  4053  0338  3004               	movlw	4
  4054  0339                     u2355:	
  4055  0339  1003               	clrc
  4056  033A  1BDE               	btfsc	??_LCD_WriteData,7
  4057  033B  1403               	setc
  4058  033C  0CDE               	rrf	??_LCD_WriteData,f
  4059  033D  0B89               	decfsz	9,f
  4060  033E  2B39               	goto	u2355
  4061  033F  3003               	movlw	3
  4062  0340  055E               	andwf	??_LCD_WriteData,w
  4063  0341  00DF               	movwf	??_LCD_WriteData+1
  4064  0342  0E60               	swapf	LCD_WriteData@point,w
  4065  0343  390F               	andlw	15
  4066  0344  1989               	btfsc	9,3
  4067  0345  38F0               	iorlw	240
  4068  0346  390C               	andlw	12
  4069  0347  0709               	addwf	9,w
  4070  0348  045F               	iorwf	??_LCD_WriteData+1,w
  4071  0349  008D               	movwf	13	;volatile
  4072                           
  4073                           ;LCD.c: 19: {LATA4 = 1; _delay((unsigned long)((1)*(32000000/4000000.0))); LATA4 = 0; _d
      +                          elay((unsigned long)((1)*(32000000/4000000.0)));};
  4074  034A  0022               	movlb	2	; select bank2
  4075  034B  160C               	bsf	12,4	;volatile
  4076  034C  3200               	nop2	;2 cycle nop
  4077  034D  3200               	nop2	;2 cycle nop
  4078  034E  3200               	nop2	;2 cycle nop
  4079  034F  3200               	nop2	;2 cycle nop
  4080  0350  0022               	movlb	2	; select bank2
  4081  0351  120C               	bcf	12,4	;volatile
  4082  0352  3200               	nop2	;2 cycle nop
  4083  0353  3200               	nop2	;2 cycle nop
  4084  0354  3200               	nop2	;2 cycle nop
  4085  0355  3200               	nop2	;2 cycle nop
  4086                           
  4087                           ;LCD.c: 20: PORTB = ( ((point&0x0F&0x0C)<<1)|(point&0x0F&0x03) );
  4088  0356  3003               	movlw	3
  4089  0357  0020               	movlb	0	; select bank0
  4090  0358  0560               	andwf	LCD_WriteData@point,w
  4091  0359  00DE               	movwf	??_LCD_WriteData
  4092  035A  0860               	movf	LCD_WriteData@point,w
  4093  035B  390C               	andlw	12
  4094  035C  0709               	addwf	9,w
  4095  035D  045E               	iorwf	??_LCD_WriteData,w
  4096  035E  008D               	movwf	13	;volatile
  4097                           
  4098                           ;LCD.c: 21: {LATA4 = 1; _delay((unsigned long)((1)*(32000000/4000000.0))); LATA4 = 0; _d
      +                          elay((unsigned long)((1)*(32000000/4000000.0)));};
  4099  035F  0022               	movlb	2	; select bank2
  4100  0360  160C               	bsf	12,4	;volatile
  4101  0361  3200               	nop2	;2 cycle nop
  4102  0362  3200               	nop2	;2 cycle nop
  4103  0363  3200               	nop2	;2 cycle nop
  4104  0364  3200               	nop2	;2 cycle nop
  4105  0365  0022               	movlb	2	; select bank2
  4106  0366  120C               	bcf	12,4	;volatile
  4107  0367  3200               	nop2	;2 cycle nop
  4108  0368  3200               	nop2	;2 cycle nop
  4109  0369  3200               	nop2	;2 cycle nop
  4110  036A  3200               	nop2	;2 cycle nop
  4111  036B  0008               	return
  4112  036C                     __end_of_LCD_WriteData:	
  4113                           
  4114                           	psect	text12
  4115  03A8                     __ptext12:	
  4116 ;; *************** function _Buzzer_Init *****************
  4117 ;; Defined at:
  4118 ;;		line 11 in file "Buzzer.c"
  4119 ;; Parameters:    Size  Location     Type
  4120 ;;		None
  4121 ;; Auto vars:     Size  Location     Type
  4122 ;;		None
  4123 ;; Return value:  Size  Location     Type
  4124 ;;                  1    wreg      void 
  4125 ;; Registers used:
  4126 ;;		wreg, status,2, status,0
  4127 ;; Tracked objects:
  4128 ;;		On entry : 0/0
  4129 ;;		On exit  : 0/0
  4130 ;;		Unchanged: 0/0
  4131 ;; Data sizes:     COMMON   BANK0   BANK1   BANK2   BANK3   BANK4
  4132 ;;      Params:         0       0       0       0       0       0
  4133 ;;      Locals:         0       0       0       0       0       0
  4134 ;;      Temps:          0       1       0       0       0       0
  4135 ;;      Totals:         0       1       0       0       0       0
  4136 ;;Total ram usage:        1 bytes
  4137 ;; Hardware stack levels used:    1
  4138 ;; Hardware stack levels required when called:    3
  4139 ;; This function calls:
  4140 ;;		Nothing
  4141 ;; This function is called by:
  4142 ;;		_main
  4143 ;; This function uses a non-reentrant model
  4144 ;;
  4145                           
  4146                           
  4147                           ;psect for function _Buzzer_Init
  4148  03A8                     _Buzzer_Init:	
  4149                           
  4150                           ;Buzzer.c: 13: TRISA &= ~(0x01<<7);
  4151                           
  4152                           ;incstack = 0
  4153                           ; Regs used in _Buzzer_Init: [wreg+status,2+status,0]
  4154  03A8  307F               	movlw	127
  4155  03A9  0020               	movlb	0	; select bank0
  4156  03AA  00DE               	movwf	??_Buzzer_Init
  4157  03AB  085E               	movf	??_Buzzer_Init,w
  4158  03AC  0021               	movlb	1	; select bank1
  4159  03AD  058C               	andwf	12,f	;volatile
  4160                           
  4161                           ;Buzzer.c: 14: ANSELA &= ~(0x01<<7);
  4162  03AE  307F               	movlw	127
  4163  03AF  0020               	movlb	0	; select bank0
  4164  03B0  00DE               	movwf	??_Buzzer_Init
  4165  03B1  085E               	movf	??_Buzzer_Init,w
  4166  03B2  0023               	movlb	3	; select bank3
  4167  03B3  058C               	andwf	12,f	;volatile
  4168                           
  4169                           ;Buzzer.c: 15: APFCON0 |= (0x01<<3);
  4170  03B4  0022               	movlb	2	; select bank2
  4171  03B5  159D               	bsf	29,3	;volatile
  4172                           
  4173                           ;Buzzer.c: 17: T2CON |= (0x00<<3);
  4174  03B6  0020               	movlb	0	; select bank0
  4175  03B7  081C               	movf	28,w	;volatile
  4176                           
  4177                           ;Buzzer.c: 18: T2CON |= (0x02<<0);
  4178  03B8  149C               	bsf	28,1	;volatile
  4179                           
  4180                           ;Buzzer.c: 19: T2CON |= (0x01<<2);
  4181  03B9  151C               	bsf	28,2	;volatile
  4182                           
  4183                           ;Buzzer.c: 21: TMR2 = 0x00;
  4184  03BA  019A               	clrf	26	;volatile
  4185                           
  4186                           ;Buzzer.c: 22: PR2 = 0xFF;
  4187  03BB  30FF               	movlw	255
  4188  03BC  009B               	movwf	27	;volatile
  4189                           
  4190                           ;Buzzer.c: 24: CCP2CON &= ~(0x03<<6);
  4191  03BD  303F               	movlw	63
  4192  03BE  00DE               	movwf	??_Buzzer_Init
  4193  03BF  085E               	movf	??_Buzzer_Init,w
  4194  03C0  0025               	movlb	5	; select bank5
  4195  03C1  059A               	andwf	26,f	;volatile
  4196                           
  4197                           ;Buzzer.c: 25: CCP2CON |= (0x0C<<0);
  4198  03C2  300C               	movlw	12
  4199  03C3  0020               	movlb	0	; select bank0
  4200  03C4  00DE               	movwf	??_Buzzer_Init
  4201  03C5  085E               	movf	??_Buzzer_Init,w
  4202  03C6  0025               	movlb	5	; select bank5
  4203  03C7  049A               	iorwf	26,f	;volatile
  4204                           
  4205                           ;Buzzer.c: 26: CCPTMRS &= ~(0x03<<2);
  4206  03C8  30F3               	movlw	243
  4207  03C9  0020               	movlb	0	; select bank0
  4208  03CA  00DE               	movwf	??_Buzzer_Init
  4209  03CB  085E               	movf	??_Buzzer_Init,w
  4210  03CC  0025               	movlb	5	; select bank5
  4211  03CD  059E               	andwf	30,f	;volatile
  4212                           
  4213                           ;Buzzer.c: 28: CCPR2L = 0x00;
  4214  03CE  0198               	clrf	24	;volatile
  4215  03CF  0008               	return
  4216  03D0                     __end_of_Buzzer_Init:	
  4217                           
  4218                           	psect	text13
  4219  0462                     __ptext13:	
  4220 ;; *************** function _Basic_Init *****************
  4221 ;; Defined at:
  4222 ;;		line 60 in file "main.c"
  4223 ;; Parameters:    Size  Location     Type
  4224 ;;		None
  4225 ;; Auto vars:     Size  Location     Type
  4226 ;;		None
  4227 ;; Return value:  Size  Location     Type
  4228 ;;                  1    wreg      char 
  4229 ;; Registers used:
  4230 ;;		wreg, status,2
  4231 ;; Tracked objects:
  4232 ;;		On entry : 0/0
  4233 ;;		On exit  : 0/0
  4234 ;;		Unchanged: 0/0
  4235 ;; Data sizes:     COMMON   BANK0   BANK1   BANK2   BANK3   BANK4
  4236 ;;      Params:         0       0       0       0       0       0
  4237 ;;      Locals:         0       0       0       0       0       0
  4238 ;;      Temps:          0       0       0       0       0       0
  4239 ;;      Totals:         0       0       0       0       0       0
  4240 ;;Total ram usage:        0 bytes
  4241 ;; Hardware stack levels used:    1
  4242 ;; Hardware stack levels required when called:    3
  4243 ;; This function calls:
  4244 ;;		Nothing
  4245 ;; This function is called by:
  4246 ;;		_main
  4247 ;; This function uses a non-reentrant model
  4248 ;;
  4249                           
  4250                           
  4251                           ;psect for function _Basic_Init
  4252  0462                     _Basic_Init:	
  4253                           
  4254                           ;main.c: 62: OSCCON = 0xF0;
  4255                           
  4256                           ;incstack = 0
  4257                           ; Regs used in _Basic_Init: [wreg+status,2]
  4258  0462  30F0               	movlw	240
  4259  0463  0021               	movlb	1	; select bank1
  4260  0464  0099               	movwf	25	;volatile
  4261                           
  4262                           ;main.c: 66: TRISA = 0x07;
  4263  0465  3007               	movlw	7
  4264  0466  008C               	movwf	12	;volatile
  4265                           
  4266                           ;main.c: 67: ANSELA = 0x07;
  4267  0467  3007               	movlw	7
  4268  0468  0023               	movlb	3	; select bank3
  4269  0469  008C               	movwf	12	;volatile
  4270                           
  4271                           ;main.c: 69: TRISB = 0x40;
  4272  046A  3040               	movlw	64
  4273  046B  0021               	movlb	1	; select bank1
  4274  046C  008D               	movwf	13	;volatile
  4275                           
  4276                           ;main.c: 70: ANSELB = 0x00;
  4277  046D  0023               	movlb	3	; select bank3
  4278  046E  018D               	clrf	13	;volatile
  4279                           
  4280                           ;main.c: 72: APFCON0 = 0x08;
  4281  046F  3008               	movlw	8
  4282  0470  0022               	movlb	2	; select bank2
  4283  0471  009D               	movwf	29	;volatile
  4284                           
  4285                           ;main.c: 73: APFCON1 = 0x00;
  4286  0472  019E               	clrf	30	;volatile
  4287                           
  4288                           ;main.c: 75: PORTA = 0x00;
  4289  0473  0020               	movlb	0	; select bank0
  4290  0474  018C               	clrf	12	;volatile
  4291                           
  4292                           ;main.c: 76: PORTB = 0x00;
  4293  0475  018D               	clrf	13	;volatile
  4294  0476  0008               	return
  4295  0477                     __end_of_Basic_Init:	
  4296                           ;main.c: 78: return 0;
  4297                           ;	Return value of _Basic_Init is never used
  4298                           
  4299                           
  4300                           	psect	intentry
  4301  0004                     __pintentry:	
  4302 ;; *************** function _Handler *****************
  4303 ;; Defined at:
  4304 ;;		line 81 in file "main.c"
  4305 ;; Parameters:    Size  Location     Type
  4306 ;;		None
  4307 ;; Auto vars:     Size  Location     Type
  4308 ;;		None
  4309 ;; Return value:  Size  Location     Type
  4310 ;;                  1    wreg      void 
  4311 ;; Registers used:
  4312 ;;		wreg, fsr1l, fsr1h, status,2, status,0, pclath, cstack
  4313 ;; Tracked objects:
  4314 ;;		On entry : 0/0
  4315 ;;		On exit  : 0/0
  4316 ;;		Unchanged: 0/0
  4317 ;; Data sizes:     COMMON   BANK0   BANK1   BANK2   BANK3   BANK4
  4318 ;;      Params:         0       0       0       0       0       0
  4319 ;;      Locals:         0       0       0       0       0       0
  4320 ;;      Temps:          1       0       0       0       0       0
  4321 ;;      Totals:         1       0       0       0       0       0
  4322 ;;Total ram usage:        1 bytes
  4323 ;; Hardware stack levels used:    1
  4324 ;; Hardware stack levels required when called:    2
  4325 ;; This function calls:
  4326 ;;		_Buzzer_Handler
  4327 ;;		_CPSx_Read
  4328 ;;		_I2C_CommonInterrupt
  4329 ;;		_Timer1_Count10us
  4330 ;;		_Timer1_DetectAssignCount
  4331 ;;		_Timer4_Handler
  4332 ;;		_Timer6_Handler
  4333 ;;		_mTouch_IntervalDecrement
  4334 ;; This function is called by:
  4335 ;;		Interrupt level 1
  4336 ;; This function uses a non-reentrant model
  4337 ;;
  4338                           
  4339  0004                     _Handler:	
  4340                           
  4341                           ;incstack = 0
  4342  0004  147E               	bsf	126,0	;set compiler interrupt flag (level 1)
  4343                           
  4344                           ; Regs used in _Handler: [wreg+fsr1l+fsr1h+status,2+status,0+pclath+cstack]
  4345  0005  3180               	pagesel	$
  4346  0006  0020               	movlb	0	; select bank0
  4347  0007  087F               	movf	127,w
  4348  0008  00FB               	movwf	??_Handler
  4349                           
  4350                           ;main.c: 83: if(Timer6_Handler())
  4351  0009  3184  24FE  3180   	fcall	_Timer6_Handler
  4352  000C  3A00               	xorlw	0
  4353  000D  1903               	skipnz
  4354  000E  2812               	goto	i1l2600
  4355                           
  4356                           ;main.c: 84: {
  4357                           ;main.c: 85: Timer1_Count10us();
  4358  000F  3185  251E  3180   	fcall	_Timer1_Count10us
  4359  0012                     i1l2600:	
  4360                           
  4361                           ;main.c: 86: }
  4362                           ;main.c: 87: if(Timer4_Handler())
  4363  0012  3185  2509  3180   	fcall	_Timer4_Handler
  4364  0015  3A00               	xorlw	0
  4365  0016  1903               	skipnz
  4366  0017  2821               	goto	i1l2608
  4367                           
  4368                           ;main.c: 88: {
  4369                           ;main.c: 89: CPSx_Read();
  4370  0018  3183  23D0  3180   	fcall	_CPSx_Read
  4371                           
  4372                           ;main.c: 90: Buzzer_Handler();
  4373  001B  3184  2477  3180   	fcall	_Buzzer_Handler
  4374                           
  4375                           ;main.c: 91: mTouch_IntervalDecrement();
  4376  001E  3184  24B2  3180   	fcall	_mTouch_IntervalDecrement
  4377  0021                     i1l2608:	
  4378                           
  4379                           ;main.c: 92: }
  4380                           ;main.c: 93: if(Timer1_DetectAssignCount())
  4381  0021  3184  244A  3180   	fcall	_Timer1_DetectAssignCount
  4382  0024  3A00               	xorlw	0
  4383  0025  1903               	skipnz
  4384  0026  282A               	goto	i1l2612
  4385                           
  4386                           ;main.c: 94: LATA6 = !LATA6;
  4387  0027  3040               	movlw	64
  4388  0028  0022               	movlb	2	; select bank2
  4389  0029  068C               	xorwf	12,f
  4390  002A                     i1l2612:	
  4391                           
  4392                           ;main.c: 96: I2C_CommonInterrupt();
  4393  002A  3185  2534         	fcall	_I2C_CommonInterrupt
  4394  002C  087B               	movf	??_Handler,w
  4395  002D  0020               	movlb	0	; select bank0
  4396  002E  00FF               	movwf	127
  4397  002F  107E               	bcf	126,0	;clear compiler interrupt flag (level 1)
  4398  0030  0009               	retfie
  4399  0031                     __end_of_Handler:	
  4400                           
  4401                           	psect	text15
  4402  04B2                     __ptext15:	
  4403 ;; *************** function _mTouch_IntervalDecrement *****************
  4404 ;; Defined at:
  4405 ;;		line 99 in file "main.c"
  4406 ;; Parameters:    Size  Location     Type
  4407 ;;		None
  4408 ;; Auto vars:     Size  Location     Type
  4409 ;;		None
  4410 ;; Return value:  Size  Location     Type
  4411 ;;                  1    wreg      void 
  4412 ;; Registers used:
  4413 ;;		wreg, status,2, status,0
  4414 ;; Tracked objects:
  4415 ;;		On entry : 0/0
  4416 ;;		On exit  : 0/0
  4417 ;;		Unchanged: 0/0
  4418 ;; Data sizes:     COMMON   BANK0   BANK1   BANK2   BANK3   BANK4
  4419 ;;      Params:         0       0       0       0       0       0
  4420 ;;      Locals:         0       0       0       0       0       0
  4421 ;;      Temps:          0       0       0       0       0       0
  4422 ;;      Totals:         0       0       0       0       0       0
  4423 ;;Total ram usage:        0 bytes
  4424 ;; Hardware stack levels used:    1
  4425 ;; This function calls:
  4426 ;;		Nothing
  4427 ;; This function is called by:
  4428 ;;		_Handler
  4429 ;; This function uses a non-reentrant model
  4430 ;;
  4431                           
  4432                           
  4433                           ;psect for function _mTouch_IntervalDecrement
  4434  04B2                     _mTouch_IntervalDecrement:	
  4435                           
  4436                           ;main.c: 101: if(mTouch_Interval[0]>0)
  4437                           
  4438                           ;incstack = 0
  4439                           ; Regs used in _mTouch_IntervalDecrement: [wreg+status,2+status,0]
  4440  04B2  0020               	movlb	0	; select bank0
  4441  04B3  0828               	movf	_mTouch_Interval,w
  4442  04B4  1903               	btfsc	3,2
  4443  04B5  2CB8               	goto	i1l640
  4444                           
  4445                           ;main.c: 102: mTouch_Interval[0]--;
  4446  04B6  3001               	movlw	1
  4447  04B7  02A8               	subwf	_mTouch_Interval,f
  4448  04B8                     i1l640:	
  4449                           
  4450                           ;main.c: 103: if(mTouch_Interval[1]>0)
  4451  04B8  0829               	movf	_mTouch_Interval+1,w
  4452  04B9  1903               	btfsc	3,2
  4453  04BA  2CBD               	goto	i1l641
  4454                           
  4455                           ;main.c: 104: mTouch_Interval[1]--;
  4456  04BB  3001               	movlw	1
  4457  04BC  02A9               	subwf	_mTouch_Interval+1,f
  4458  04BD                     i1l641:	
  4459                           
  4460                           ;main.c: 105: if(mTouch_Interval[2]>0)
  4461  04BD  082A               	movf	_mTouch_Interval+2,w
  4462  04BE  1903               	btfsc	3,2
  4463  04BF  0008               	return
  4464                           
  4465                           ;main.c: 106: mTouch_Interval[2]--;
  4466  04C0  3001               	movlw	1
  4467  04C1  02AA               	subwf	_mTouch_Interval+2,f
  4468  04C2  0008               	return
  4469  04C3                     __end_of_mTouch_IntervalDecrement:	
  4470                           
  4471                           	psect	text16
  4472  04FE                     __ptext16:	
  4473 ;; *************** function _Timer6_Handler *****************
  4474 ;; Defined at:
  4475 ;;		line 17 in file "Timer6.c"
  4476 ;; Parameters:    Size  Location     Type
  4477 ;;		None
  4478 ;; Auto vars:     Size  Location     Type
  4479 ;;		None
  4480 ;; Return value:  Size  Location     Type
  4481 ;;                  1    wreg      unsigned char 
  4482 ;; Registers used:
  4483 ;;		wreg
  4484 ;; Tracked objects:
  4485 ;;		On entry : 0/0
  4486 ;;		On exit  : 0/0
  4487 ;;		Unchanged: 0/0
  4488 ;; Data sizes:     COMMON   BANK0   BANK1   BANK2   BANK3   BANK4
  4489 ;;      Params:         0       0       0       0       0       0
  4490 ;;      Locals:         0       0       0       0       0       0
  4491 ;;      Temps:          0       0       0       0       0       0
  4492 ;;      Totals:         0       0       0       0       0       0
  4493 ;;Total ram usage:        0 bytes
  4494 ;; Hardware stack levels used:    1
  4495 ;; This function calls:
  4496 ;;		Nothing
  4497 ;; This function is called by:
  4498 ;;		_Handler
  4499 ;; This function uses a non-reentrant model
  4500 ;;
  4501                           
  4502                           
  4503                           ;psect for function _Timer6_Handler
  4504  04FE                     _Timer6_Handler:	
  4505                           
  4506                           ;Timer6.c: 19: if(TMR6IE&&TMR6IF)
  4507                           
  4508                           ;incstack = 0
  4509                           ; Regs used in _Timer6_Handler: [wreg]
  4510  04FE  0021               	movlb	1	; select bank1
  4511  04FF  1D93               	btfss	19,3	;volatile
  4512  0500  2D07               	goto	i1l1788
  4513  0501  0020               	movlb	0	; select bank0
  4514  0502  1D93               	btfss	19,3	;volatile
  4515  0503  2D07               	goto	i1l1788
  4516                           
  4517                           ;Timer6.c: 20: {
  4518                           ;Timer6.c: 21: TMR6IF = 0;
  4519  0504  1193               	bcf	19,3	;volatile
  4520                           
  4521                           ;Timer6.c: 22: return 1;
  4522  0505  3001               	movlw	1
  4523  0506  0008               	return
  4524  0507                     i1l1788:	
  4525                           
  4526                           ;Timer6.c: 23: }
  4527                           ;Timer6.c: 24: return 0;
  4528  0507  3000               	movlw	0
  4529  0508  0008               	return
  4530  0509                     __end_of_Timer6_Handler:	
  4531                           
  4532                           	psect	text17
  4533  0509                     __ptext17:	
  4534 ;; *************** function _Timer4_Handler *****************
  4535 ;; Defined at:
  4536 ;;		line 17 in file "Timer4.c"
  4537 ;; Parameters:    Size  Location     Type
  4538 ;;		None
  4539 ;; Auto vars:     Size  Location     Type
  4540 ;;		None
  4541 ;; Return value:  Size  Location     Type
  4542 ;;                  1    wreg      unsigned char 
  4543 ;; Registers used:
  4544 ;;		wreg
  4545 ;; Tracked objects:
  4546 ;;		On entry : 0/0
  4547 ;;		On exit  : 0/0
  4548 ;;		Unchanged: 0/0
  4549 ;; Data sizes:     COMMON   BANK0   BANK1   BANK2   BANK3   BANK4
  4550 ;;      Params:         0       0       0       0       0       0
  4551 ;;      Locals:         0       0       0       0       0       0
  4552 ;;      Temps:          0       0       0       0       0       0
  4553 ;;      Totals:         0       0       0       0       0       0
  4554 ;;Total ram usage:        0 bytes
  4555 ;; Hardware stack levels used:    1
  4556 ;; This function calls:
  4557 ;;		Nothing
  4558 ;; This function is called by:
  4559 ;;		_Handler
  4560 ;; This function uses a non-reentrant model
  4561 ;;
  4562                           
  4563                           
  4564                           ;psect for function _Timer4_Handler
  4565  0509                     _Timer4_Handler:	
  4566                           
  4567                           ;Timer4.c: 19: if(TMR4IE&&TMR4IF)
  4568                           
  4569                           ;incstack = 0
  4570                           ; Regs used in _Timer4_Handler: [wreg]
  4571  0509  0021               	movlb	1	; select bank1
  4572  050A  1C93               	btfss	19,1	;volatile
  4573  050B  2D12               	goto	i1l1756
  4574  050C  0020               	movlb	0	; select bank0
  4575  050D  1C93               	btfss	19,1	;volatile
  4576  050E  2D12               	goto	i1l1756
  4577                           
  4578                           ;Timer4.c: 20: {
  4579                           ;Timer4.c: 21: TMR4IF = 0;
  4580  050F  1093               	bcf	19,1	;volatile
  4581                           
  4582                           ;Timer4.c: 22: return 1;
  4583  0510  3001               	movlw	1
  4584  0511  0008               	return
  4585  0512                     i1l1756:	
  4586                           
  4587                           ;Timer4.c: 23: }
  4588                           ;Timer4.c: 24: return 0;
  4589  0512  3000               	movlw	0
  4590  0513  0008               	return
  4591  0514                     __end_of_Timer4_Handler:	
  4592                           
  4593                           	psect	text18
  4594  044A                     __ptext18:	
  4595 ;; *************** function _Timer1_DetectAssignCount *****************
  4596 ;; Defined at:
  4597 ;;		line 48 in file "Timer1.c"
  4598 ;; Parameters:    Size  Location     Type
  4599 ;;		None
  4600 ;; Auto vars:     Size  Location     Type
  4601 ;;		None
  4602 ;; Return value:  Size  Location     Type
  4603 ;;                  1    wreg      unsigned char 
  4604 ;; Registers used:
  4605 ;;		wreg
  4606 ;; Tracked objects:
  4607 ;;		On entry : 0/0
  4608 ;;		On exit  : 0/0
  4609 ;;		Unchanged: 0/0
  4610 ;; Data sizes:     COMMON   BANK0   BANK1   BANK2   BANK3   BANK4
  4611 ;;      Params:         0       0       0       0       0       0
  4612 ;;      Locals:         0       0       0       0       0       0
  4613 ;;      Temps:          0       0       0       0       0       0
  4614 ;;      Totals:         0       0       0       0       0       0
  4615 ;;Total ram usage:        0 bytes
  4616 ;; Hardware stack levels used:    1
  4617 ;; This function calls:
  4618 ;;		Nothing
  4619 ;; This function is called by:
  4620 ;;		_Handler
  4621 ;; This function uses a non-reentrant model
  4622 ;;
  4623                           
  4624                           
  4625                           ;psect for function _Timer1_DetectAssignCount
  4626  044A                     _Timer1_DetectAssignCount:	
  4627                           
  4628                           ;Timer1.c: 50: if(TMR1IF&&TMR1IE)
  4629                           
  4630                           ;incstack = 0
  4631                           ; Regs used in _Timer1_DetectAssignCount: [wreg]
  4632  044A  0020               	movlb	0	; select bank0
  4633  044B  1C11               	btfss	17,0	;volatile
  4634  044C  2C60               	goto	i1l2344
  4635  044D  0021               	movlb	1	; select bank1
  4636  044E  1C11               	btfss	17,0	;volatile
  4637  044F  2C60               	goto	i1l2344
  4638                           
  4639                           ;Timer1.c: 51: {
  4640                           ;Timer1.c: 52: countsum += 10;
  4641  0450  300A               	movlw	10
  4642  0451  0020               	movlb	0	; select bank0
  4643  0452  07A4               	addwf	_countsum,f
  4644  0453  3000               	movlw	0
  4645  0454  3DA5               	addwfc	_countsum+1,f
  4646  0455  3000               	movlw	0
  4647  0456  3DA6               	addwfc	_countsum+2,f
  4648  0457  3000               	movlw	0
  4649  0458  3DA7               	addwfc	_countsum+3,f
  4650                           
  4651                           ;Timer1.c: 53: TMR1 = 0xFFFF-10;
  4652  0459  30FF               	movlw	255
  4653  045A  0097               	movwf	23	;volatile
  4654  045B  30F5               	movlw	245
  4655  045C  0096               	movwf	22	;volatile
  4656                           
  4657                           ;Timer1.c: 54: TMR1IF = 0;
  4658  045D  1011               	bcf	17,0	;volatile
  4659                           
  4660                           ;Timer1.c: 55: return 1;
  4661  045E  3001               	movlw	1
  4662  045F  0008               	return
  4663  0460                     i1l2344:	
  4664                           
  4665                           ;Timer1.c: 56: }
  4666                           ;Timer1.c: 57: return 0;
  4667  0460  3000               	movlw	0
  4668  0461  0008               	return
  4669  0462                     __end_of_Timer1_DetectAssignCount:	
  4670                           
  4671                           	psect	text19
  4672  051E                     __ptext19:	
  4673 ;; *************** function _Timer1_Count10us *****************
  4674 ;; Defined at:
  4675 ;;		line 43 in file "Timer1.c"
  4676 ;; Parameters:    Size  Location     Type
  4677 ;;		None
  4678 ;; Auto vars:     Size  Location     Type
  4679 ;;		None
  4680 ;; Return value:  Size  Location     Type
  4681 ;;                  1    wreg      void 
  4682 ;; Registers used:
  4683 ;;		wreg
  4684 ;; Tracked objects:
  4685 ;;		On entry : 0/0
  4686 ;;		On exit  : 0/0
  4687 ;;		Unchanged: 0/0
  4688 ;; Data sizes:     COMMON   BANK0   BANK1   BANK2   BANK3   BANK4
  4689 ;;      Params:         0       0       0       0       0       0
  4690 ;;      Locals:         0       0       0       0       0       0
  4691 ;;      Temps:          0       0       0       0       0       0
  4692 ;;      Totals:         0       0       0       0       0       0
  4693 ;;Total ram usage:        0 bytes
  4694 ;; Hardware stack levels used:    1
  4695 ;; This function calls:
  4696 ;;		Nothing
  4697 ;; This function is called by:
  4698 ;;		_Handler
  4699 ;; This function uses a non-reentrant model
  4700 ;;
  4701                           
  4702                           
  4703                           ;psect for function _Timer1_Count10us
  4704  051E                     _Timer1_Count10us:	
  4705                           
  4706                           ;Timer1.c: 45: timesum++;
  4707                           
  4708                           ;incstack = 0
  4709                           ; Regs used in _Timer1_Count10us: [wreg]
  4710  051E  3001               	movlw	1
  4711  051F  0020               	movlb	0	; select bank0
  4712  0520  07A0               	addwf	_timesum,f
  4713  0521  3000               	movlw	0
  4714  0522  3DA1               	addwfc	_timesum+1,f
  4715  0523  3000               	movlw	0
  4716  0524  3DA2               	addwfc	_timesum+2,f
  4717  0525  3000               	movlw	0
  4718  0526  3DA3               	addwfc	_timesum+3,f
  4719  0527  0008               	return
  4720  0528                     __end_of_Timer1_Count10us:	
  4721                           
  4722                           	psect	text20
  4723  0534                     __ptext20:	
  4724 ;; *************** function _I2C_CommonInterrupt *****************
  4725 ;; Defined at:
  4726 ;;		line 58 in file "I2C_Common.c"
  4727 ;; Parameters:    Size  Location     Type
  4728 ;;		None
  4729 ;; Auto vars:     Size  Location     Type
  4730 ;;		None
  4731 ;; Return value:  Size  Location     Type
  4732 ;;                  1    wreg      void 
  4733 ;; Registers used:
  4734 ;;		wreg, fsr1l, fsr1h, status,2, status,0, pclath, cstack
  4735 ;; Tracked objects:
  4736 ;;		On entry : 0/0
  4737 ;;		On exit  : 0/0
  4738 ;;		Unchanged: 0/0
  4739 ;; Data sizes:     COMMON   BANK0   BANK1   BANK2   BANK3   BANK4
  4740 ;;      Params:         0       0       0       0       0       0
  4741 ;;      Locals:         0       0       0       0       0       0
  4742 ;;      Temps:          0       0       0       0       0       0
  4743 ;;      Totals:         0       0       0       0       0       0
  4744 ;;Total ram usage:        0 bytes
  4745 ;; Hardware stack levels used:    1
  4746 ;; Hardware stack levels required when called:    1
  4747 ;; This function calls:
  4748 ;;		_I2C1_Interrupt
  4749 ;;		_I2C2_Interrupt
  4750 ;; This function is called by:
  4751 ;;		_Handler
  4752 ;; This function uses a non-reentrant model
  4753 ;;
  4754                           
  4755                           
  4756                           ;psect for function _I2C_CommonInterrupt
  4757  0534                     _I2C_CommonInterrupt:	
  4758                           
  4759                           ;I2C_Common.c: 60: I2C1_Interrupt();
  4760                           
  4761                           ;incstack = 0
  4762                           ; Regs used in _I2C_CommonInterrupt: [wreg+fsr1l+fsr1h+status,2+status,0+pclath+cstack]
  4763  0534  3182  224E  3185   	fcall	_I2C1_Interrupt
  4764                           
  4765                           ;I2C_Common.c: 61: I2C2_Interrupt();
  4766  0537  3181  21FA         	fcall	_I2C2_Interrupt
  4767  0539  0008               	return
  4768  053A                     __end_of_I2C_CommonInterrupt:	
  4769                           
  4770                           	psect	text21
  4771  01FA                     __ptext21:	
  4772 ;; *************** function _I2C2_Interrupt *****************
  4773 ;; Defined at:
  4774 ;;		line 152 in file "I2C2.c"
  4775 ;; Parameters:    Size  Location     Type
  4776 ;;		None
  4777 ;; Auto vars:     Size  Location     Type
  4778 ;;		None
  4779 ;; Return value:  Size  Location     Type
  4780 ;;                  1    wreg      void 
  4781 ;; Registers used:
  4782 ;;		wreg, fsr1l, fsr1h, status,2, status,0
  4783 ;; Tracked objects:
  4784 ;;		On entry : 0/0
  4785 ;;		On exit  : 0/0
  4786 ;;		Unchanged: 0/0
  4787 ;; Data sizes:     COMMON   BANK0   BANK1   BANK2   BANK3   BANK4
  4788 ;;      Params:         0       0       0       0       0       0
  4789 ;;      Locals:         0       0       0       0       0       0
  4790 ;;      Temps:          1       0       0       0       0       0
  4791 ;;      Totals:         1       0       0       0       0       0
  4792 ;;Total ram usage:        1 bytes
  4793 ;; Hardware stack levels used:    1
  4794 ;; This function calls:
  4795 ;;		Nothing
  4796 ;; This function is called by:
  4797 ;;		_I2C_CommonInterrupt
  4798 ;; This function uses a non-reentrant model
  4799 ;;
  4800                           
  4801                           
  4802                           ;psect for function _I2C2_Interrupt
  4803  01FA                     _I2C2_Interrupt:	
  4804                           
  4805                           ;I2C2.c: 154: if(SSP2IF&&SSP2IE)
  4806                           
  4807                           ;incstack = 0
  4808                           ; Regs used in _I2C2_Interrupt: [wreg+fsr1l+fsr1h+status,2+status,0]
  4809  01FA  0020               	movlb	0	; select bank0
  4810  01FB  1C14               	btfss	20,0	;volatile
  4811  01FC  2A46               	goto	i1l1474
  4812  01FD  0021               	movlb	1	; select bank1
  4813  01FE  1C14               	btfss	20,0	;volatile
  4814  01FF  2A46               	goto	i1l1474
  4815                           
  4816                           ;I2C2.c: 155: {
  4817                           ;I2C2.c: 156: if(SSP2STATbits.D_nA)
  4818  0200  0024               	movlb	4	; select bank4
  4819  0201  1E9C               	btfss	28,5	;volatile
  4820  0202  2A1D               	goto	i1l294
  4821                           
  4822                           ;I2C2.c: 157: {
  4823                           ;I2C2.c: 158: if(SSP2STATbits.R_nW)
  4824  0203  1D1C               	btfss	28,2	;volatile
  4825  0204  2A10               	goto	i1l1450
  4826                           
  4827                           ;I2C2.c: 159: {
  4828                           ;I2C2.c: 160: if(!SSP2CON2bits.ACKSTAT)
  4829  0205  1B1E               	btfsc	30,6	;volatile
  4830  0206  2A44               	goto	i1l1472
  4831  0207                     i1l1442:	
  4832                           ;I2C2.c: 161: {
  4833                           ;I2C2.c: 162: while((SSP2CON1bits.CKP)|(SSP2STATbits.BF));
  4834                           
  4835  0207  081C               	movf	28,w	;volatile
  4836  0208  3901               	andlw	1
  4837  0209  00F6               	movwf	??_I2C2_Interrupt
  4838  020A  0E1D               	swapf	29,w	;volatile
  4839  020B  3901               	andlw	1
  4840  020C  0476               	iorwf	??_I2C2_Interrupt,w
  4841  020D  1D03               	btfss	3,2
  4842  020E  2A07               	goto	i1l1442
  4843  020F  2A30               	goto	L1
  4844  0210                     i1l1450:	
  4845                           ;I2C2.c: 166: }
  4846                           ;I2C2.c: 167: }
  4847                           
  4848                           ;I2C2.c: 165: SSP2CON1bits.CKP = 1;
  4849                           
  4850                           ;I2C2.c: 164: I2C2_Config.TransmitPoint++;
  4851                           
  4852                           ;I2C2.c: 163: SSP2BUF = *I2C2_Config.TransmitPoint;
  4853                           
  4854                           
  4855                           ;I2C2.c: 168: else
  4856                           ;I2C2.c: 169: {
  4857                           ;I2C2.c: 170: *I2C2_Config.ReceivePoint = SSP2BUF;
  4858  0210  0819               	movf	25,w	;volatile
  4859  0211  00F6               	movwf	??_I2C2_Interrupt
  4860  0212  0020               	movlb	0	; select bank0
  4861  0213  0847               	movf	low ((_I2C2_Config| 0+17)),w
  4862  0214  0086               	movwf	6
  4863  0215  0187               	clrf	7
  4864  0216  0876               	movf	??_I2C2_Interrupt,w
  4865  0217  0081               	movwf	1
  4866                           
  4867                           ;I2C2.c: 171: I2C2_Config.ReceivePoint++;
  4868  0218  3001               	movlw	1
  4869  0219  00F6               	movwf	??_I2C2_Interrupt
  4870  021A  0876               	movf	??_I2C2_Interrupt,w
  4871  021B  07C7               	addwf	low ((_I2C2_Config| 0+17)),f
  4872  021C  2A42               	goto	i1l1470
  4873  021D                     i1l294:	
  4874                           ;I2C2.c: 173: }
  4875                           ;I2C2.c: 174: }
  4876                           
  4877                           ;I2C2.c: 172: SSP2CON1bits.CKP = 1;
  4878                           
  4879                           
  4880                           ;I2C2.c: 175: else if(!SSP2STATbits.D_nA)
  4881  021D  1A9C               	btfsc	28,5	;volatile
  4882  021E  2A44               	goto	i1l1472
  4883                           
  4884                           ;I2C2.c: 176: {
  4885                           ;I2C2.c: 177: SSP2BUF;
  4886  021F  0819               	movf	25,w	;volatile
  4887                           
  4888                           ;I2C2.c: 179: if(SSP2STATbits.R_nW)
  4889  0220  1D1C               	btfss	28,2	;volatile
  4890  0221  2A3D               	goto	i1l1468
  4891                           
  4892                           ;I2C2.c: 180: {
  4893                           ;I2C2.c: 181: I2C2_Config.TransmitPoint = I2C2_Config.SlaveTransmitBuff;
  4894  0222  3036               	movlw	(low (_I2C2_Config| 0))& (0+255)
  4895  0223  00F6               	movwf	??_I2C2_Interrupt
  4896  0224  0876               	movf	??_I2C2_Interrupt,w
  4897  0225  0020               	movlb	0	; select bank0
  4898  0226  00C6               	movwf	low ((_I2C2_Config| 0+16))
  4899  0227                     i1l1462:	
  4900                           ;I2C2.c: 183: while((SSP2CON1bits.CKP)|(SSP2STATbits.BF));
  4901                           
  4902  0227  0024               	movlb	4	; select bank4
  4903  0228  081C               	movf	28,w	;volatile
  4904  0229  3901               	andlw	1
  4905  022A  00F6               	movwf	??_I2C2_Interrupt
  4906  022B  0E1D               	swapf	29,w	;volatile
  4907  022C  3901               	andlw	1
  4908  022D  0476               	iorwf	??_I2C2_Interrupt,w
  4909  022E  1D03               	btfss	3,2
  4910  022F  2A27               	goto	i1l1462
  4911  0230                     L1:	
  4912                           
  4913                           ;I2C2.c: 184: SSP2BUF = *I2C2_Config.TransmitPoint;
  4914  0230  0020               	movlb	0	; select bank0
  4915  0231  0846               	movf	low ((_I2C2_Config| 0+16)),w
  4916  0232  0086               	movwf	6
  4917  0233  0187               	clrf	7
  4918  0234  0801               	movf	1,w
  4919  0235  0024               	movlb	4	; select bank4
  4920  0236  0099               	movwf	25	;volatile
  4921                           
  4922                           ;I2C2.c: 185: I2C2_Config.TransmitPoint++;
  4923  0237  3001               	movlw	1
  4924  0238  00F6               	movwf	??_I2C2_Interrupt
  4925  0239  0876               	movf	??_I2C2_Interrupt,w
  4926  023A  0020               	movlb	0	; select bank0
  4927  023B  07C6               	addwf	low ((_I2C2_Config| 0+16)),f
  4928                           
  4929                           ;I2C2.c: 186: }
  4930  023C  2A42               	goto	i1l1470
  4931  023D                     i1l1468:	
  4932                           
  4933                           ;I2C2.c: 187: else
  4934                           ;I2C2.c: 188: {
  4935                           ;I2C2.c: 189: I2C2_Config.ReceivePoint = I2C2_Config.SlaveReceiveBuff;
  4936  023D  303E               	movlw	(low ((_I2C2_Config| 0+8)))& (0+255)
  4937  023E  00F6               	movwf	??_I2C2_Interrupt
  4938  023F  0876               	movf	??_I2C2_Interrupt,w
  4939  0240  0020               	movlb	0	; select bank0
  4940  0241  00C7               	movwf	low ((_I2C2_Config| 0+17))
  4941  0242                     i1l1470:	
  4942                           
  4943                           ;I2C2.c: 190: }
  4944                           ;I2C2.c: 191: SSP2CON1bits.CKP = 1;
  4945  0242  0024               	movlb	4	; select bank4
  4946  0243  161D               	bsf	29,4	;volatile
  4947  0244                     i1l1472:	
  4948                           
  4949                           ;I2C2.c: 192: }
  4950                           ;I2C2.c: 193: SSP2IF = 0;
  4951  0244  0020               	movlb	0	; select bank0
  4952  0245  1014               	bcf	20,0	;volatile
  4953  0246                     i1l1474:	
  4954                           
  4955                           ;I2C2.c: 194: }
  4956                           ;I2C2.c: 196: if(BCL2IE&&BCL2IF)
  4957  0246  0021               	movlb	1	; select bank1
  4958  0247  1C94               	btfss	20,1	;volatile
  4959  0248  0008               	return
  4960  0249  0020               	movlb	0	; select bank0
  4961  024A  1C94               	btfss	20,1	;volatile
  4962  024B  0008               	return
  4963                           
  4964                           ;I2C2.c: 197: BCL2IF = 0;
  4965  024C  1094               	bcf	20,1	;volatile
  4966  024D  0008               	return
  4967  024E                     __end_of_I2C2_Interrupt:	
  4968                           
  4969                           	psect	text22
  4970  024E                     __ptext22:	
  4971 ;; *************** function _I2C1_Interrupt *****************
  4972 ;; Defined at:
  4973 ;;		line 152 in file "I2C1.c"
  4974 ;; Parameters:    Size  Location     Type
  4975 ;;		None
  4976 ;; Auto vars:     Size  Location     Type
  4977 ;;		None
  4978 ;; Return value:  Size  Location     Type
  4979 ;;                  1    wreg      void 
  4980 ;; Registers used:
  4981 ;;		wreg, fsr1l, fsr1h, status,2, status,0
  4982 ;; Tracked objects:
  4983 ;;		On entry : 0/0
  4984 ;;		On exit  : 0/0
  4985 ;;		Unchanged: 0/0
  4986 ;; Data sizes:     COMMON   BANK0   BANK1   BANK2   BANK3   BANK4
  4987 ;;      Params:         0       0       0       0       0       0
  4988 ;;      Locals:         0       0       0       0       0       0
  4989 ;;      Temps:          1       0       0       0       0       0
  4990 ;;      Totals:         1       0       0       0       0       0
  4991 ;;Total ram usage:        1 bytes
  4992 ;; Hardware stack levels used:    1
  4993 ;; This function calls:
  4994 ;;		Nothing
  4995 ;; This function is called by:
  4996 ;;		_I2C_CommonInterrupt
  4997 ;; This function uses a non-reentrant model
  4998 ;;
  4999                           
  5000                           
  5001                           ;psect for function _I2C1_Interrupt
  5002  024E                     _I2C1_Interrupt:	
  5003                           
  5004                           ;I2C1.c: 154: if(SSP1IF&&SSP1IE)
  5005                           
  5006                           ;incstack = 0
  5007                           ; Regs used in _I2C1_Interrupt: [wreg+fsr1l+fsr1h+status,2+status,0]
  5008  024E  0020               	movlb	0	; select bank0
  5009  024F  1D91               	btfss	17,3	;volatile
  5010  0250  2A9A               	goto	i1l1338
  5011  0251  0021               	movlb	1	; select bank1
  5012  0252  1D91               	btfss	17,3	;volatile
  5013  0253  2A9A               	goto	i1l1338
  5014                           
  5015                           ;I2C1.c: 155: {
  5016                           ;I2C1.c: 156: if(SSP1STATbits.D_nA)
  5017  0254  0024               	movlb	4	; select bank4
  5018  0255  1E94               	btfss	20,5	;volatile
  5019  0256  2A71               	goto	i1l157
  5020                           
  5021                           ;I2C1.c: 157: {
  5022                           ;I2C1.c: 158: if(SSP1STATbits.R_nW)
  5023  0257  1D14               	btfss	20,2	;volatile
  5024  0258  2A64               	goto	i1l1314
  5025                           
  5026                           ;I2C1.c: 159: {
  5027                           ;I2C1.c: 160: if(!SSP1CON2bits.ACKSTAT)
  5028  0259  1B16               	btfsc	22,6	;volatile
  5029  025A  2A98               	goto	i1l1336
  5030  025B                     i1l1306:	
  5031                           ;I2C1.c: 161: {
  5032                           ;I2C1.c: 162: while((SSP1CON1bits.CKP)|(SSP1STATbits.BF));
  5033                           
  5034  025B  0814               	movf	20,w	;volatile
  5035  025C  3901               	andlw	1
  5036  025D  00F6               	movwf	??_I2C1_Interrupt
  5037  025E  0E15               	swapf	21,w	;volatile
  5038  025F  3901               	andlw	1
  5039  0260  0476               	iorwf	??_I2C1_Interrupt,w
  5040  0261  1D03               	btfss	3,2
  5041  0262  2A5B               	goto	i1l1306
  5042  0263  2A84               	goto	L2
  5043  0264                     i1l1314:	
  5044                           ;I2C1.c: 166: }
  5045                           ;I2C1.c: 167: }
  5046                           
  5047                           ;I2C1.c: 165: SSP1CON1bits.CKP = 1;
  5048                           
  5049                           ;I2C1.c: 164: I2C1_Config.TransmitPoint++;
  5050                           
  5051                           ;I2C1.c: 163: SSP1BUF = *I2C1_Config.TransmitPoint;
  5052                           
  5053                           
  5054                           ;I2C1.c: 168: else
  5055                           ;I2C1.c: 169: {
  5056                           ;I2C1.c: 170: *I2C1_Config.ReceivePoint = SSP1BUF;
  5057  0264  0811               	movf	17,w	;volatile
  5058  0265  00F6               	movwf	??_I2C1_Interrupt
  5059  0266  0020               	movlb	0	; select bank0
  5060  0267  085A               	movf	low ((_I2C1_Config| 0+17)),w
  5061  0268  0086               	movwf	6
  5062  0269  0187               	clrf	7
  5063  026A  0876               	movf	??_I2C1_Interrupt,w
  5064  026B  0081               	movwf	1
  5065                           
  5066                           ;I2C1.c: 171: I2C1_Config.ReceivePoint++;
  5067  026C  3001               	movlw	1
  5068  026D  00F6               	movwf	??_I2C1_Interrupt
  5069  026E  0876               	movf	??_I2C1_Interrupt,w
  5070  026F  07DA               	addwf	low ((_I2C1_Config| 0+17)),f
  5071  0270  2A96               	goto	i1l1334
  5072  0271                     i1l157:	
  5073                           ;I2C1.c: 173: }
  5074                           ;I2C1.c: 174: }
  5075                           
  5076                           ;I2C1.c: 172: SSP1CON1bits.CKP = 1;
  5077                           
  5078                           
  5079                           ;I2C1.c: 175: else if(!SSP1STATbits.D_nA)
  5080  0271  1A94               	btfsc	20,5	;volatile
  5081  0272  2A98               	goto	i1l1336
  5082                           
  5083                           ;I2C1.c: 176: {
  5084                           ;I2C1.c: 177: SSP1BUF;
  5085  0273  0811               	movf	17,w	;volatile
  5086                           
  5087                           ;I2C1.c: 179: if(SSP1STATbits.R_nW)
  5088  0274  1D14               	btfss	20,2	;volatile
  5089  0275  2A91               	goto	i1l1332
  5090                           
  5091                           ;I2C1.c: 180: {
  5092                           ;I2C1.c: 181: I2C1_Config.TransmitPoint = I2C1_Config.SlaveTransmitBuff;
  5093  0276  3049               	movlw	(low (_I2C1_Config| 0))& (0+255)
  5094  0277  00F6               	movwf	??_I2C1_Interrupt
  5095  0278  0876               	movf	??_I2C1_Interrupt,w
  5096  0279  0020               	movlb	0	; select bank0
  5097  027A  00D9               	movwf	low ((_I2C1_Config| 0+16))
  5098  027B                     i1l1326:	
  5099                           ;I2C1.c: 183: while((SSP1CON1bits.CKP)|(SSP1STATbits.BF));
  5100                           
  5101  027B  0024               	movlb	4	; select bank4
  5102  027C  0814               	movf	20,w	;volatile
  5103  027D  3901               	andlw	1
  5104  027E  00F6               	movwf	??_I2C1_Interrupt
  5105  027F  0E15               	swapf	21,w	;volatile
  5106  0280  3901               	andlw	1
  5107  0281  0476               	iorwf	??_I2C1_Interrupt,w
  5108  0282  1D03               	btfss	3,2
  5109  0283  2A7B               	goto	i1l1326
  5110  0284                     L2:	
  5111                           
  5112                           ;I2C1.c: 184: SSP1BUF = *I2C1_Config.TransmitPoint;
  5113  0284  0020               	movlb	0	; select bank0
  5114  0285  0859               	movf	low ((_I2C1_Config| 0+16)),w
  5115  0286  0086               	movwf	6
  5116  0287  0187               	clrf	7
  5117  0288  0801               	movf	1,w
  5118  0289  0024               	movlb	4	; select bank4
  5119  028A  0091               	movwf	17	;volatile
  5120                           
  5121                           ;I2C1.c: 185: I2C1_Config.TransmitPoint++;
  5122  028B  3001               	movlw	1
  5123  028C  00F6               	movwf	??_I2C1_Interrupt
  5124  028D  0876               	movf	??_I2C1_Interrupt,w
  5125  028E  0020               	movlb	0	; select bank0
  5126  028F  07D9               	addwf	low ((_I2C1_Config| 0+16)),f
  5127                           
  5128                           ;I2C1.c: 186: }
  5129  0290  2A96               	goto	i1l1334
  5130  0291                     i1l1332:	
  5131                           
  5132                           ;I2C1.c: 187: else
  5133                           ;I2C1.c: 188: {
  5134                           ;I2C1.c: 189: I2C1_Config.ReceivePoint = I2C1_Config.SlaveReceiveBuff;
  5135  0291  3051               	movlw	(low ((_I2C1_Config| 0+8)))& (0+255)
  5136  0292  00F6               	movwf	??_I2C1_Interrupt
  5137  0293  0876               	movf	??_I2C1_Interrupt,w
  5138  0294  0020               	movlb	0	; select bank0
  5139  0295  00DA               	movwf	low ((_I2C1_Config| 0+17))
  5140  0296                     i1l1334:	
  5141                           
  5142                           ;I2C1.c: 190: }
  5143                           ;I2C1.c: 191: SSP1CON1bits.CKP = 1;
  5144  0296  0024               	movlb	4	; select bank4
  5145  0297  1615               	bsf	21,4	;volatile
  5146  0298                     i1l1336:	
  5147                           
  5148                           ;I2C1.c: 192: }
  5149                           ;I2C1.c: 193: SSP1IF = 0;
  5150  0298  0020               	movlb	0	; select bank0
  5151  0299  1191               	bcf	17,3	;volatile
  5152  029A                     i1l1338:	
  5153                           
  5154                           ;I2C1.c: 194: }
  5155                           ;I2C1.c: 196: if(BCL1IE&&BCL1IF)
  5156  029A  0021               	movlb	1	; select bank1
  5157  029B  1D92               	btfss	18,3	;volatile
  5158  029C  0008               	return
  5159  029D  0020               	movlb	0	; select bank0
  5160  029E  1D92               	btfss	18,3	;volatile
  5161  029F  0008               	return
  5162                           
  5163                           ;I2C1.c: 197: BCL1IF = 0;
  5164  02A0  1192               	bcf	18,3	;volatile
  5165  02A1  0008               	return
  5166  02A2                     __end_of_I2C1_Interrupt:	
  5167                           
  5168                           	psect	text23
  5169  03D0                     __ptext23:	
  5170 ;; *************** function _CPSx_Read *****************
  5171 ;; Defined at:
  5172 ;;		line 29 in file "mTouch.c"
  5173 ;; Parameters:    Size  Location     Type
  5174 ;;		None
  5175 ;; Auto vars:     Size  Location     Type
  5176 ;;		None
  5177 ;; Return value:  Size  Location     Type
  5178 ;;                  1    wreg      void 
  5179 ;; Registers used:
  5180 ;;		wreg, fsr1l, fsr1h, status,2, status,0
  5181 ;; Tracked objects:
  5182 ;;		On entry : 0/0
  5183 ;;		On exit  : 0/0
  5184 ;;		Unchanged: 0/0
  5185 ;; Data sizes:     COMMON   BANK0   BANK1   BANK2   BANK3   BANK4
  5186 ;;      Params:         0       0       0       0       0       0
  5187 ;;      Locals:         0       0       0       0       0       0
  5188 ;;      Temps:          1       0       0       0       0       0
  5189 ;;      Totals:         1       0       0       0       0       0
  5190 ;;Total ram usage:        1 bytes
  5191 ;; Hardware stack levels used:    1
  5192 ;; This function calls:
  5193 ;;		Nothing
  5194 ;; This function is called by:
  5195 ;;		_Handler
  5196 ;; This function uses a non-reentrant model
  5197 ;;
  5198                           
  5199                           
  5200                           ;psect for function _CPSx_Read
  5201  03D0                     _CPSx_Read:	
  5202                           
  5203                           ;mTouch.c: 31: static uint8_t channel=0;
  5204                           ;mTouch.c: 33: CPS_PreData[channel] = CPS_Data[channel];
  5205                           
  5206                           ;incstack = 0
  5207                           ; Regs used in _CPSx_Read: [wreg+fsr1l+fsr1h+status,2+status,0]
  5208  03D0  0874               	movf	CPSx_Read@channel,w
  5209  03D1  3E2B               	addlw	(low (_CPS_Data| 0))& (0+255)
  5210  03D2  0086               	movwf	6
  5211  03D3  0187               	clrf	7
  5212  03D4  0801               	movf	1,w
  5213  03D5  00F6               	movwf	??_CPSx_Read
  5214  03D6  0874               	movf	CPSx_Read@channel,w
  5215  03D7  3E2E               	addlw	(low (_CPS_PreData| 0))& (0+255)
  5216  03D8  0086               	movwf	6
  5217  03D9  0187               	clrf	7
  5218  03DA  0876               	movf	??_CPSx_Read,w
  5219  03DB  0081               	movwf	1
  5220                           
  5221                           ;mTouch.c: 34: CPSCON0 &= ~(0x01<<7);;
  5222  03DC  307F               	movlw	127
  5223  03DD  00F6               	movwf	??_CPSx_Read
  5224  03DE  0876               	movf	??_CPSx_Read,w
  5225  03DF  0020               	movlb	0	; select bank0
  5226  03E0  059E               	andwf	30,f	;volatile
  5227                           
  5228                           ;mTouch.c: 35: CPS_Data[channel] = TMR0;
  5229  03E1  0815               	movf	21,w	;volatile
  5230  03E2  00F6               	movwf	??_CPSx_Read
  5231  03E3  0874               	movf	CPSx_Read@channel,w
  5232  03E4  3E2B               	addlw	(low (_CPS_Data| 0))& (0+255)
  5233  03E5  0086               	movwf	6
  5234  03E6  0187               	clrf	7
  5235  03E7  0876               	movf	??_CPSx_Read,w
  5236  03E8  0081               	movwf	1
  5237                           
  5238                           ;mTouch.c: 36: TMR0 = 0x00;
  5239  03E9  0195               	clrf	21	;volatile
  5240                           
  5241                           ;mTouch.c: 37: CPSCON0 |= (0x01<<7);;
  5242  03EA  179E               	bsf	30,7	;volatile
  5243                           
  5244                           ;mTouch.c: 39: if(channel++>2)channel = 0;
  5245  03EB  0874               	movf	CPSx_Read@channel,w
  5246  03EC  0AF4               	incf	CPSx_Read@channel,f
  5247  03ED  00F6               	movwf	??_CPSx_Read
  5248  03EE  3003               	movlw	3
  5249  03EF  0276               	subwf	??_CPSx_Read,w
  5250  03F0  1803               	btfsc	3,0
  5251  03F1  01F4               	clrf	CPSx_Read@channel
  5252                           
  5253                           ;mTouch.c: 40: CPSCON1 = (uint8_t)channel;
  5254  03F2  0874               	movf	CPSx_Read@channel,w
  5255  03F3  009F               	movwf	31	;volatile
  5256  03F4  0008               	return
  5257  03F5                     __end_of_CPSx_Read:	
  5258                           
  5259                           	psect	text24
  5260  0477                     __ptext24:	
  5261 ;; *************** function _Buzzer_Handler *****************
  5262 ;; Defined at:
  5263 ;;		line 44 in file "Buzzer.c"
  5264 ;; Parameters:    Size  Location     Type
  5265 ;;		None
  5266 ;; Auto vars:     Size  Location     Type
  5267 ;;		None
  5268 ;; Return value:  Size  Location     Type
  5269 ;;                  1    wreg      void 
  5270 ;; Registers used:
  5271 ;;		wreg, status,2, status,0, pclath, cstack
  5272 ;; Tracked objects:
  5273 ;;		On entry : 0/0
  5274 ;;		On exit  : 0/0
  5275 ;;		Unchanged: 0/0
  5276 ;; Data sizes:     COMMON   BANK0   BANK1   BANK2   BANK3   BANK4
  5277 ;;      Params:         0       0       0       0       0       0
  5278 ;;      Locals:         0       0       0       0       0       0
  5279 ;;      Temps:          0       0       0       0       0       0
  5280 ;;      Totals:         0       0       0       0       0       0
  5281 ;;Total ram usage:        0 bytes
  5282 ;; Hardware stack levels used:    1
  5283 ;; Hardware stack levels required when called:    1
  5284 ;; This function calls:
  5285 ;;		_Buzzer_SetDuty
  5286 ;; This function is called by:
  5287 ;;		_Handler
  5288 ;; This function uses a non-reentrant model
  5289 ;;
  5290                           
  5291                           
  5292                           ;psect for function _Buzzer_Handler
  5293  0477                     _Buzzer_Handler:	
  5294                           
  5295                           ;Buzzer.c: 46: if(count>0)
  5296                           
  5297                           ;incstack = 0
  5298                           ; Regs used in _Buzzer_Handler: [wreg+status,2+status,0+pclath+cstack]
  5299  0477  0872               	movf	_count,w
  5300  0478  0473               	iorwf	_count+1,w
  5301  0479  1903               	btfsc	3,2
  5302  047A  2C86               	goto	i1l2264
  5303                           
  5304                           ;Buzzer.c: 47: {
  5305                           ;Buzzer.c: 48: count--;
  5306  047B  3001               	movlw	1
  5307  047C  02F2               	subwf	_count,f
  5308  047D  3000               	movlw	0
  5309  047E  3BF3               	subwfb	_count+1,f
  5310                           
  5311                           ;Buzzer.c: 49: Buzzer_SetDuty(0x01FF);
  5312  047F  30FF               	movlw	255
  5313  0480  00F6               	movwf	Buzzer_SetDuty@duty
  5314  0481  3001               	movlw	1
  5315  0482  00F7               	movwf	Buzzer_SetDuty@duty+1
  5316  0483  3184  2413         	fcall	_Buzzer_SetDuty
  5317                           
  5318                           ;Buzzer.c: 50: }
  5319  0485  0008               	return
  5320  0486                     i1l2264:	
  5321                           
  5322                           ;Buzzer.c: 51: else
  5323                           ;Buzzer.c: 52: {
  5324                           ;Buzzer.c: 53: Buzzer_SetDuty(0x0000);
  5325  0486  3000               	movlw	0
  5326  0487  00F6               	movwf	Buzzer_SetDuty@duty
  5327  0488  00F7               	movwf	Buzzer_SetDuty@duty+1
  5328  0489  3184  2413         	fcall	_Buzzer_SetDuty
  5329  048B  0008               	return
  5330  048C                     __end_of_Buzzer_Handler:	
  5331                           
  5332                           	psect	text25
  5333  0413                     __ptext25:	
  5334 ;; *************** function _Buzzer_SetDuty *****************
  5335 ;; Defined at:
  5336 ;;		line 31 in file "Buzzer.c"
  5337 ;; Parameters:    Size  Location     Type
  5338 ;;  duty            2    0[COMMON] unsigned int 
  5339 ;; Auto vars:     Size  Location     Type
  5340 ;;  CCP2CON_Pre     1    4[COMMON] unsigned char 
  5341 ;; Return value:  Size  Location     Type
  5342 ;;                  1    wreg      void 
  5343 ;; Registers used:
  5344 ;;		wreg, status,2, status,0
  5345 ;; Tracked objects:
  5346 ;;		On entry : 0/0
  5347 ;;		On exit  : 0/0
  5348 ;;		Unchanged: 0/0
  5349 ;; Data sizes:     COMMON   BANK0   BANK1   BANK2   BANK3   BANK4
  5350 ;;      Params:         2       0       0       0       0       0
  5351 ;;      Locals:         1       0       0       0       0       0
  5352 ;;      Temps:          2       0       0       0       0       0
  5353 ;;      Totals:         5       0       0       0       0       0
  5354 ;;Total ram usage:        5 bytes
  5355 ;; Hardware stack levels used:    1
  5356 ;; This function calls:
  5357 ;;		Nothing
  5358 ;; This function is called by:
  5359 ;;		_Buzzer_Handler
  5360 ;; This function uses a non-reentrant model
  5361 ;;
  5362                           
  5363                           
  5364                           ;psect for function _Buzzer_SetDuty
  5365  0413                     _Buzzer_SetDuty:	
  5366                           
  5367                           ;Buzzer.c: 33: uint8_t CCP2CON_Pre = CCP2CON & ~(0x03<<4);
  5368                           
  5369                           ;incstack = 0
  5370                           ; Regs used in _Buzzer_SetDuty: [wreg+status,2+status,0]
  5371  0413  0025               	movlb	5	; select bank5
  5372  0414  081A               	movf	26,w	;volatile
  5373  0415  39CF               	andlw	207
  5374  0416  00F8               	movwf	??_Buzzer_SetDuty
  5375  0417  0878               	movf	??_Buzzer_SetDuty,w
  5376  0418  00FA               	movwf	Buzzer_SetDuty@CCP2CON_Pre
  5377                           
  5378                           ;Buzzer.c: 34: CCPR2L = (duty>>2);
  5379  0419  0877               	movf	Buzzer_SetDuty@duty+1,w
  5380  041A  00F9               	movwf	??_Buzzer_SetDuty+1
  5381  041B  0876               	movf	Buzzer_SetDuty@duty,w
  5382  041C  00F8               	movwf	??_Buzzer_SetDuty
  5383  041D  36F9               	lsrf	??_Buzzer_SetDuty+1,f
  5384  041E  0CF8               	rrf	??_Buzzer_SetDuty,f
  5385  041F  36F9               	lsrf	??_Buzzer_SetDuty+1,f
  5386  0420  0CF8               	rrf	??_Buzzer_SetDuty,f
  5387  0421  0878               	movf	??_Buzzer_SetDuty,w
  5388  0422  0098               	movwf	24	;volatile
  5389                           
  5390                           ;Buzzer.c: 35: CCP2CON = CCP2CON_Pre | ((duty&0x03)<<4);
  5391  0423  0876               	movf	Buzzer_SetDuty@duty,w
  5392  0424  3903               	andlw	3
  5393  0425  00F8               	movwf	??_Buzzer_SetDuty
  5394  0426  3003               	movlw	3
  5395  0427                     u123_25:	
  5396  0427  35F8               	lslf	??_Buzzer_SetDuty,f
  5397  0428  3EFF               	addlw	-1
  5398  0429  1D03               	skipz
  5399  042A  2C27               	goto	u123_25
  5400  042B  3578               	lslf	??_Buzzer_SetDuty,w
  5401  042C  047A               	iorwf	Buzzer_SetDuty@CCP2CON_Pre,w
  5402  042D  009A               	movwf	26	;volatile
  5403  042E  0008               	return
  5404  042F                     __end_of_Buzzer_SetDuty:	
  5405  007E                     btemp	set	126	;btemp
  5406  007E                     int$flags	set	126
  5407  007E                     wtemp0	set	126


Data Sizes:
    Strings     273
    Constant    30
    Data        90
    BSS         68
    Persistent  0
    Stack       0

Auto Spaces:
    Space          Size  Autos    Used
    COMMON           14      6      12
    BANK0            80      9      71
    BANK1            80      0      60
    BANK2            80      0      30
    BANK3            80      0       0
    BANK4            48      0       0

Pointer List with Targets:

    H7826_01_Gain	PTR const unsigned char [15] size(2) Largest target is 7
		 -> STR_45(CODE[7]), STR_44(CODE[7]), STR_43(CODE[7]), STR_42(CODE[7]), 
		 -> STR_41(CODE[7]), STR_40(CODE[7]), STR_39(CODE[7]), STR_38(CODE[6]), 
		 -> STR_37(CODE[6]), STR_36(CODE[6]), STR_35(CODE[6]), STR_34(CODE[5]), 
		 -> STR_33(CODE[5]), STR_32(CODE[5]), STR_31(CODE[5]), 

    H7826_Gain	PTR const unsigned char [15] size(2) Largest target is 8
		 -> STR_30(CODE[8]), STR_29(CODE[8]), STR_28(CODE[8]), STR_27(CODE[7]), 
		 -> STR_26(CODE[7]), STR_25(CODE[7]), STR_24(CODE[7]), STR_23(CODE[7]), 
		 -> STR_22(CODE[6]), STR_21(CODE[6]), STR_20(CODE[6]), STR_19(CODE[6]), 
		 -> STR_18(CODE[5]), STR_17(CODE[5]), STR_16(CODE[5]), 

    DAC_VoltageTable	PTR const unsigned char [15] size(2) Largest target is 6
		 -> STR_15(CODE[5]), STR_14(CODE[6]), STR_13(CODE[5]), STR_12(CODE[6]), 
		 -> STR_11(CODE[5]), STR_10(CODE[6]), STR_9(CODE[5]), STR_8(CODE[6]), 
		 -> STR_7(CODE[5]), STR_6(CODE[6]), STR_5(CODE[5]), STR_4(CODE[6]), 
		 -> STR_3(CODE[5]), STR_2(CODE[6]), STR_1(CODE[5]), 

    I2C2_Config.ReceivePoint	PTR unsigned char  size(1) Largest target is 21
		 -> I2C2_Config.SlaveReceiveBuff(BANK0[8]), I2C2_Config(BANK0[19]), I2C1_Config(BANK0[19]), 

    I2C2_Config.TransmitPoint	PTR unsigned char  size(1) Largest target is 21
		 -> I2C2_Config.SlaveTransmitBuff(BANK0[8]), I2C2_Config(BANK0[19]), I2C1_Config(BANK0[19]), 

    S46$ReceivePoint	PTR unsigned char  size(1) Largest target is 21
		 -> I2C2_Config(BANK0[19]), I2C1_Config(BANK0[19]), 

    I2C1_Config.ReceivePoint	PTR unsigned char  size(1) Largest target is 21
		 -> I2C2_Config(BANK0[19]), I2C1_Config.SlaveReceiveBuff(BANK0[8]), I2C1_Config(BANK0[19]), 

    S46$TransmitPoint	PTR unsigned char  size(1) Largest target is 21
		 -> I2C2_Config(BANK0[19]), I2C1_Config(BANK0[19]), 

    I2C1_Config.TransmitPoint	PTR unsigned char  size(1) Largest target is 21
		 -> I2C2_Config(BANK0[19]), I2C1_Config.SlaveTransmitBuff(BANK0[8]), I2C1_Config(BANK0[19]), 


Critical Paths under _main in COMMON

    None.

Critical Paths under _Handler in COMMON

    _I2C_CommonInterrupt->_I2C1_Interrupt
    _I2C_CommonInterrupt->_I2C2_Interrupt
    _Buzzer_Handler->_Buzzer_SetDuty

Critical Paths under _main in BANK0

    _main->_mTouch_Read
    _mTouch_Read->_Buzzer_MiliSecond
    _mTouch_Init->_mTouch_PortInit
    _LCD_Init->_LCD_DisplayClear
    _LCD_DisplayClear->_LCD_WriteData
    _LCD_CursorHome->_LCD_WriteData

Critical Paths under _Handler in BANK0

    None.

Critical Paths under _main in BANK1

    None.

Critical Paths under _Handler in BANK1

    None.

Critical Paths under _main in BANK2

    None.

Critical Paths under _Handler in BANK2

    None.

Critical Paths under _main in BANK3

    None.

Critical Paths under _Handler in BANK3

    None.

Critical Paths under _main in BANK4

    None.

Critical Paths under _Handler in BANK4

    None.

Call Graph Tables:

 ---------------------------------------------------------------------------------
 (Depth) Function   	        Calls       Base Space   Used Autos Params    Refs
 ---------------------------------------------------------------------------------
 (0) _main                                                 1     1      0     635
                                              8 BANK0      1     1      0
                         _Basic_Init
                        _Buzzer_Init
                     _LCD_CursorHome
                           _LCD_Init
                        _Timer1_Init
                        _Timer4_Init
                        _Timer6_Init
                        _mTouch_Init
                        _mTouch_Read
 ---------------------------------------------------------------------------------
 (1) _mTouch_Read                                          6     6      0     263
                                              2 BANK0      6     6      0
                  _Buzzer_MiliSecond
 ---------------------------------------------------------------------------------
 (2) _Buzzer_MiliSecond                                    2     0      2     108
                                              0 BANK0      2     0      2
 ---------------------------------------------------------------------------------
 (1) _mTouch_Init                                          1     1      0       0
                                              1 BANK0      1     1      0
                    _mTouch_PortInit
 ---------------------------------------------------------------------------------
 (2) _mTouch_PortInit                                      1     1      0       0
                                              0 BANK0      1     1      0
 ---------------------------------------------------------------------------------
 (1) _Timer6_Init                                          0     0      0       0
 ---------------------------------------------------------------------------------
 (1) _Timer4_Init                                          1     1      0       0
                                              0 BANK0      1     1      0
 ---------------------------------------------------------------------------------
 (1) _Timer1_Init                                          1     1      0       0
                                              0 BANK0      1     1      0
 ---------------------------------------------------------------------------------
 (1) _LCD_Init                                             2     2      0     248
                                              4 BANK0      2     2      0
                   _LCD_DisplayClear
                      _LCD_WriteData
 ---------------------------------------------------------------------------------
 (2) _LCD_DisplayClear                                     1     1      0     124
                                              3 BANK0      1     1      0
                      _LCD_WriteData
 ---------------------------------------------------------------------------------
 (1) _LCD_CursorHome                                       1     1      0     124
                                              3 BANK0      1     1      0
                      _LCD_WriteData
 ---------------------------------------------------------------------------------
 (2) _LCD_WriteData                                        3     3      0     124
                                              0 BANK0      3     3      0
 ---------------------------------------------------------------------------------
 (1) _Buzzer_Init                                          1     1      0       0
                                              0 BANK0      1     1      0
 ---------------------------------------------------------------------------------
 (1) _Basic_Init                                           0     0      0       0
 ---------------------------------------------------------------------------------
 Estimated maximum stack depth 2
 ---------------------------------------------------------------------------------
 (Depth) Function   	        Calls       Base Space   Used Autos Params    Refs
 ---------------------------------------------------------------------------------
 (4) _Handler                                              1     1      0     195
                                              5 COMMON     1     1      0
                     _Buzzer_Handler
                          _CPSx_Read
                _I2C_CommonInterrupt
                   _Timer1_Count10us
           _Timer1_DetectAssignCount
                     _Timer4_Handler
                     _Timer6_Handler
           _mTouch_IntervalDecrement
 ---------------------------------------------------------------------------------
 (5) _mTouch_IntervalDecrement                             0     0      0       0
 ---------------------------------------------------------------------------------
 (5) _Timer6_Handler                                       0     0      0       0
 ---------------------------------------------------------------------------------
 (5) _Timer4_Handler                                       0     0      0       0
 ---------------------------------------------------------------------------------
 (5) _Timer1_DetectAssignCount                             0     0      0       0
 ---------------------------------------------------------------------------------
 (5) _Timer1_Count10us                                     0     0      0       0
 ---------------------------------------------------------------------------------
 (5) _I2C_CommonInterrupt                                  0     0      0       0
                     _I2C1_Interrupt
                     _I2C2_Interrupt
 ---------------------------------------------------------------------------------
 (6) _I2C2_Interrupt                                       1     1      0       0
                                              0 COMMON     1     1      0
 ---------------------------------------------------------------------------------
 (6) _I2C1_Interrupt                                       1     1      0       0
                                              0 COMMON     1     1      0
 ---------------------------------------------------------------------------------
 (5) _CPSx_Read                                            1     1      0       0
                                              0 COMMON     1     1      0
 ---------------------------------------------------------------------------------
 (5) _Buzzer_Handler                                       0     0      0     195
                     _Buzzer_SetDuty
 ---------------------------------------------------------------------------------
 (6) _Buzzer_SetDuty                                       5     3      2     195
                                              0 COMMON     5     3      2
 ---------------------------------------------------------------------------------
 Estimated maximum stack depth 6
 ---------------------------------------------------------------------------------

 Call Graph Graphs:

 _main (ROOT)
   _Basic_Init
   _Buzzer_Init
   _LCD_CursorHome
     _LCD_WriteData
   _LCD_Init
     _LCD_DisplayClear
       _LCD_WriteData
     _LCD_WriteData
   _Timer1_Init
   _Timer4_Init
   _Timer6_Init
   _mTouch_Init
     _mTouch_PortInit
   _mTouch_Read
     _Buzzer_MiliSecond

 _Handler (ROOT)
   _Buzzer_Handler
     _Buzzer_SetDuty
   _CPSx_Read
   _I2C_CommonInterrupt
     _I2C1_Interrupt
     _I2C2_Interrupt
   _Timer1_Count10us
   _Timer1_DetectAssignCount
   _Timer4_Handler
   _Timer6_Handler
   _mTouch_IntervalDecrement

 Address spaces:
Name               Size   Autos  Total    Cost      Usage
BIGRAM             170      0       0       0        0.0%
EEDATA             100      0       0       0        0.0%
NULL                 0      0       0       0        0.0%
CODE                 0      0       0       0        0.0%
BITCOMMON            E      0       0       1        0.0%
BITSFR0              0      0       0       1        0.0%
SFR0                 0      0       0       1        0.0%
COMMON               E      6       C       2       85.7%
BITSFR1              0      0       0       2        0.0%
SFR1                 0      0       0       2        0.0%
BITSFR2              0      0       0       3        0.0%
SFR2                 0      0       0       3        0.0%
STACK                0      0       0       3        0.0%
BITSFR3              0      0       0       4        0.0%
SFR3                 0      0       0       4        0.0%
ABS                  0      0      AD       4        0.0%
BITBANK0            50      0       0       5        0.0%
BITSFR4              0      0       0       5        0.0%
SFR4                 0      0       0       5        0.0%
BANK0               50      9      47       6       88.8%
BITSFR5              0      0       0       6        0.0%
SFR5                 0      0       0       6        0.0%
BITBANK1            50      0       0       7        0.0%
BITSFR6              0      0       0       7        0.0%
SFR6                 0      0       0       7        0.0%
BANK1               50      0      3C       8       75.0%
BITSFR7              0      0       0       8        0.0%
SFR7                 0      0       0       8        0.0%
BITBANK2            50      0       0       9        0.0%
BITSFR8              0      0       0       9        0.0%
SFR8                 0      0       0       9        0.0%
BANK2               50      0      1E      10       37.5%
BITSFR9              0      0       0      10        0.0%
SFR9                 0      0       0      10        0.0%
BITBANK3            50      0       0      11        0.0%
BITSFR10             0      0       0      11        0.0%
SFR10                0      0       0      11        0.0%
BANK3               50      0       0      12        0.0%
BITSFR11             0      0       0      12        0.0%
SFR11                0      0       0      12        0.0%
BITBANK4            30      0       0      13        0.0%
BITSFR12             0      0       0      13        0.0%
SFR12                0      0       0      13        0.0%
BANK4               30      0       0      14        0.0%
BITSFR13             0      0       0      14        0.0%
SFR13                0      0       0      14        0.0%
BITSFR14             0      0       0      15        0.0%
SFR14                0      0       0      15        0.0%
DATA                 0      0      AD      15        0.0%
BITSFR15             0      0       0      16        0.0%
SFR15                0      0       0      16        0.0%
BITSFR16             0      0       0      17        0.0%
SFR16                0      0       0      17        0.0%
BITSFR17             0      0       0      18        0.0%
SFR17                0      0       0      18        0.0%
BITSFR18             0      0       0      19        0.0%
SFR18                0      0       0      19        0.0%
BITSFR19             0      0       0      20        0.0%
SFR19                0      0       0      20        0.0%
BITSFR20             0      0       0      21        0.0%
SFR20                0      0       0      21        0.0%
BITSFR21             0      0       0      22        0.0%
SFR21                0      0       0      22        0.0%
BITSFR22             0      0       0      23        0.0%
SFR22                0      0       0      23        0.0%
BITSFR23             0      0       0      24        0.0%
SFR23                0      0       0      24        0.0%
BITSFR24             0      0       0      25        0.0%
SFR24                0      0       0      25        0.0%
BITSFR25             0      0       0      26        0.0%
SFR25                0      0       0      26        0.0%
BITSFR26             0      0       0      27        0.0%
SFR26                0      0       0      27        0.0%
BITSFR27             0      0       0      28        0.0%
SFR27                0      0       0      28        0.0%
BITSFR28             0      0       0      29        0.0%
SFR28                0      0       0      29        0.0%
BITSFR29             0      0       0      30        0.0%
SFR29                0      0       0      30        0.0%
BITSFR30             0      0       0      31        0.0%
SFR30                0      0       0      31        0.0%
BITSFR31             0      0       0      32        0.0%
SFR31                0      0       0      32        0.0%


Microchip Technology PIC Macro Assembler V1.41 build -162212810 
Symbol Table                                                                                   Sun May 21 00:48:16 2017

                   _LCD_CursorHome 04D3                        __CFG_CP$OFF 0000  
            ??_I2C_CommonInterrupt 0077                                _GIE 005F  
                              _PR2 001B                                _PR4 0416  
                     __CFG_CPD$OFF 0000                                _PR6 041D  
                     __CFG_BORV$LO 0000                                wreg 0009  
                       _Basic_Init 0462                       __CFG_LVP$OFF 0000  
       ??_Timer1_DetectAssignCount 0076                               l2910 032D  
                             l2960 02BC                               l2972 02D9  
                             l2966 02CD                               l2898 02F3  
                             STR_1 0172                               STR_2 0122  
                             STR_3 0177                               STR_4 0128  
                             STR_5 017C                               STR_6 012E  
                             STR_7 0181                               STR_8 0134  
                             STR_9 0186                               u2355 0339  
                             u2507 01AD                               u2517 01C2  
                             u2527 01D7                               u2537 04CD  
                             u2385 0313                               u2547 04DD  
                             u2557 0332                               u2497 0194  
                             _PEIE 005E              Buzzer_MiliSecond@time 005E  
                             _TMR0 0015                               _TMR1 0016  
                             _TMR2 001A                               _TMR4 0415  
                             _TMR6 041C                       __CFG_WRT$OFF 0000  
                             _main 02A2                               _mode 0070  
                             fsr0h 0005                               fsr1h 0007  
                             indf0 0000                               fsr0l 0004  
                             indf1 0001                               fsr1l 0006  
                             btemp 007E                      __CFG_BOREN$ON 0000  
                 ??_I2C1_Interrupt 0076                               start 0031  
                    __CFG_IESO$OFF 0000                    __end_of_Handler 0031  
           __end_of_LCD_CursorHome 04E3                      _LCD_WriteData 032F  
                    __CFG_MCLRE$ON 0000                   ??_I2C2_Interrupt 0076  
               __size_of_CPSx_Read 0025           __end_of_LCD_DisplayClear 04D3  
                 __end_of_LCD_Init 01FA                      __CFG_PLLEN$ON 0000  
                            ?_main 0076                              STR_10 013A  
                            STR_11 0163                              STR_12 0116  
                            STR_20 00E6                              STR_13 0168  
                            STR_21 00F2                              STR_14 011C  
                            STR_30 007A                              STR_22 010A  
                            STR_31 0140                              STR_15 016D  
                            STR_23 00C3                              STR_40 00D1  
                            STR_32 0145                              STR_24 00BC  
                            STR_16 0154                              STR_41 00AE  
                            STR_33 0159                              STR_25 00CA  
                            STR_17 014F                      __CFG_WDTE$OFF 0000  
                            STR_42 00B5                              STR_34 014A  
                            STR_26 0092                              STR_18 015E  
                            STR_43 00DF                              STR_35 00F8  
                            STR_27 00D8                              STR_19 0110  
                            STR_44 0099                              STR_36 00FE  
                            STR_28 008A                              STR_45 00A0  
                            STR_37 0104                              STR_29 0082  
                            STR_38 00EC                              STR_39 00A7  
                            _T1CON 0018                              _T2CON 001C  
                            _LATA3 0863                              _LATA4 0864  
                            _LATA6 0866                              _T4CON 0417  
                            _T6CON 041E                              i1l157 0271  
                            i1l294 021D                              i1l640 04B8  
                            i1l641 04BD                              _PORTA 000C  
                            _PORTB 000D                              _TRISA 008C  
                            _TRISB 008D                      __CFG_PWRTE$ON 0000  
                   __CFG_FCMEN$OFF 0000                              _count 0072  
                            _errno 0034                      ??_Buzzer_Init 005E  
                            status 0003                              wtemp0 007E  
                _Buzzer_MiliSecond 0514                     ?_LCD_WriteData 0076  
               ?_Buzzer_MiliSecond 005E                    ?_LCD_CursorHome 0076  
                  __initialization 0033                       __end_of_main 02EB  
              ??_Buzzer_MiliSecond 0060                             ??_main 0066  
                 CPSx_Read@channel 0074                        ?_Basic_Init 0076  
                           _BCL1IE 0493                             _BCL1IF 0093  
                           _BCL2IE 04A1                             _BCL2IF 00A1  
             __size_of_mTouch_Init 0013               __size_of_mTouch_Read 0044  
                           _CCPR2L 0298                             _ANSELA 018C  
                           _ANSELB 018D                             _T1GCON 0019  
                __end_of_CPSx_Read 03F5                             i1l1306 025B  
                           i1l1314 0264                             i1l1332 0291  
                           i1l1334 0296                             i1l1326 027B  
                           i1l1336 0298                             i1l1338 029A  
                           i1l1442 0207                             i1l1450 0210  
                           i1l1470 0242                             i1l1462 0227  
                           i1l2264 0486                             i1l1472 0244  
                           i1l2344 0460                             i1l2600 0012  
                           i1l1474 0246                             i1l1468 023D  
                           i1l2612 002A                             i1l2608 0021  
                           i1l1756 0512                             i1l1788 0507  
                           u123_25 0427                    _mTouch_Interval 0028  
        __end_of_Buzzer_MiliSecond 051E                             _OSCCON 0099  
                   _Timer4_Handler 0509                             _TMR1IE 0488  
                           _TMR1IF 0088                          ??_Handler 007B  
                           _TMR4IE 0499                             _TMR4IF 0099  
                           _TMR6IE 049B                             _TMR6IF 009B  
                           _TMR1ON 00C0                             _SSP1IE 048B  
                           _SSP1IF 008B                             _SSP2IE 04A0  
                           _SSP2IF 00A0           _mTouch_IntervalDecrement 04B2  
                   _Timer6_Handler 04FE                    _mTouch_PortInit 04F1  
                    ??_Timer1_Init 005E                      ??_Timer4_Init 005E  
              __end_of_Buzzer_Init 03D0                      ??_Timer6_Init 005E  
                ?_Timer1_Count10us 0076                 ??_Timer1_Count10us 0076  
           __end_of_Timer4_Handler 0514            __end_of__initialization 0058  
           __end_of_Timer6_Handler 0509                          ?_LCD_Init 0076  
                  ??_LCD_WriteData 005E                         _VoltageReg 005C  
               Buzzer_SetDuty@duty 0076                     __pcstackCOMMON 0076  
              __size_of_Basic_Init 0015                       __pidataBANK1 036C  
                     __pidataBANK2 03F5                __end_of_Timer1_Init 044A  
              __end_of_Timer4_Init 04B2                __end_of_Timer6_Init 04F1  
        Buzzer_SetDuty@CCP2CON_Pre 007A            __size_of_Buzzer_Handler 0015  
                  ?_Timer4_Handler 0076            __end_of_mTouch_PortInit 04FE  
                       __pbssBANK0 0020         __size_of_Buzzer_MiliSecond 000A  
                      _Buzzer_Init 03A8                         ??_LCD_Init 0062  
                  ?_Timer6_Handler 0076            __size_of_Buzzer_SetDuty 001C  
                    _DAC_DataTable 005C        __end_of_I2C_CommonInterrupt 053A  
                       __pmaintext 02A2                         __pintentry 0004  
                          _CCP2CON 029A                  ?_LCD_DisplayClear 0076  
                          _APFCON0 011D                            _APFCON1 011E  
                          _CCPTMRS 029E                 ??_LCD_DisplayClear 0061  
                          _CPSCON0 001E                            _CPSCON1 001F  
                          _SSP1ADD 0212                            _SSP2ADD 021A  
                          _SSP1BUF 0211                            _SSP2BUF 0219  
                          _SSP1MSK 0213                            _SSP2MSK 021B  
                 ??_LCD_CursorHome 0061                            _Handler 0004  
                      _Timer1_Init 042F                        _Timer4_Init 049F  
                      _Timer6_Init 04E3  __size_of_Timer1_DetectAssignCount 0018  
        ?_Timer1_DetectAssignCount 0076                    __CFG_STVREN$OFF 0000  
                          __ptext1 02EB                            __ptext2 0514  
                          __ptext3 048C                            __ptext4 04F1  
                          __ptext5 04E3                            __ptext6 049F  
                          __ptext7 042F                            __ptext8 018B  
                          __ptext9 04C3                    mTouch_Read@chan 0065  
                     ??_Basic_Init 005E         ??_mTouch_IntervalDecrement 0076  
                          _timesum 0020                            clrloop0 052F  
             end_of_initialization 0058                   ?_mTouch_PortInit 0076  
                          init_ram 0528                            initloop 0529  
                      _I2C1_Config 0049                          _CPSx_Read 03D0  
                      _I2C2_Config 0036                 __end_of_Basic_Init 0477  
                 _DAC_VoltageTable 00BE                       __pstringtext 005C  
          __size_of_I2C1_Interrupt 0054                   __CFG_FOSC$INTOSC 0000  
                    ??_mTouch_Init 005F                      ??_mTouch_Read 0060  
          __size_of_I2C2_Interrupt 0054          __size_of_Timer1_Count10us 000A  
                   _Buzzer_Handler 0477                     _Buzzer_SetDuty 0413  
                       ?_CPSx_Read 0076                      _H7826_01_Gain 0120  
                __size_of_LCD_Init 006F                          _ConfigReg 0075  
                 ??_Timer4_Handler 0076                start_initialization 0033  
           __end_of_Buzzer_Handler 048C                   ??_Timer6_Handler 0076  
                        _MemoryReg 0031             __end_of_Buzzer_SetDuty 042F  
                     ?_Buzzer_Init 0076                __end_of_mTouch_Init 049F  
              __end_of_mTouch_Read 032F              __end_of_LCD_WriteData 036C  
                      __pdataBANK1 00A0                        __pdataBANK2 0120  
                      __pbssCOMMON 0070                          ___latbits 0001  
                    __pcstackBANK0 005E   __end_of_mTouch_IntervalDecrement 04C3  
                  ?_Buzzer_Handler 0076          __size_of_LCD_DisplayClear 0010  
                  ?_Buzzer_SetDuty 0076   __end_of_Timer1_DetectAssignCount 0462  
                         ?_Handler 0076                        ??_CPSx_Read 0076  
                     ?_Timer1_Init 0076                       ?_Timer4_Init 0076  
                     ?_Timer6_Init 0076                     _I2C1_Interrupt 024E  
     __size_of_I2C_CommonInterrupt 0006                     _I2C2_Interrupt 01FA  
                       _H7826_Gain 00A0                        _mTouch_Init 048C  
                      _mTouch_Read 02EB                   _Timer1_Count10us 051E  
                         _LCD_Init 018B                           _CPS_Data 002B  
                        clear_ram0 052E             __end_of_I2C1_Interrupt 02A2  
                         _SSP1CON1 0215                           _SSP1CON2 0216  
                         _SSP2CON1 021D                           _SSP2CON2 021E  
                         _SSP1STAT 0214                           _SSP2STAT 021C  
           __end_of_I2C2_Interrupt 024E                        _CPS_PreData 002E  
                 __size_of_Handler 002D               __size_of_Buzzer_Init 0028  
         _Timer1_DetectAssignCount 044A           __size_of_mTouch_PortInit 000D  
__size_of_mTouch_IntervalDecrement 0011          ?_mTouch_IntervalDecrement 0076  
                  ?_I2C1_Interrupt 0076            __size_of_LCD_CursorHome 0010  
               LCD_WriteData@point 0060                    ?_I2C2_Interrupt 0076  
                         __ptext10 04D3                           __ptext11 032F  
                         __ptext20 0534                           __ptext12 03A8  
                         __ptext21 01FA                           __ptext13 0462  
                         __ptext22 024E                           __ptext23 03D0  
                         __ptext15 04B2                           __ptext24 0477  
                         __ptext16 04FE                           __ptext25 0413  
                         __ptext17 0509                           __ptext18 044A  
                         __ptext19 051E                       _SSP1CON1bits 0215  
                     _SSP1CON2bits 0216                   _LCD_DisplayClear 04C3  
                     _SSP2CON1bits 021D                       _SSP2CON2bits 021E  
                         _countsum 0024              __end_of_DAC_DataTable 007A  
                    __size_of_main 0049               __size_of_Timer1_Init 001B  
                         int$flags 007E               __size_of_Timer4_Init 0013  
             __size_of_Timer6_Init 000E                       _SSP1STATbits 0214  
                     _SSP2STATbits 021C                   ??_Buzzer_Handler 007B  
                 ??_Buzzer_SetDuty 0078                           intlevel1 0000  
              _I2C_CommonInterrupt 0534                  __CFG_CLKOUTEN$OFF 0000  
         __end_of_Timer1_Count10us 0528                  ??_mTouch_PortInit 005E  
             ?_I2C_CommonInterrupt 0076                         _OPTION_REG 0095  
                     ?_mTouch_Init 0076                       ?_mTouch_Read 0076  
           __size_of_LCD_WriteData 003D            __size_of_Timer4_Handler 000B  
          __size_of_Timer6_Handler 000B  
