

Microchip Technology PIC LITE Macro Assembler V1.41 build -162212810 
                                                                                               Thu Mar  2 14:04:58 2017

Microchip Technology Omniscient Code Generator v1.41 (Free mode) build 201701250102
     1                           	processor	16F1827
     2                           	opt	pw 120
     3                           	opt	lm
     4                           	psect	idataBANK0,global,class=CODE,delta=2
     5                           	psect	stringtext,global,class=STRCODE,delta=2
     6                           	psect	cinit,global,class=CODE,merge=1,delta=2
     7                           	psect	bssBANK0,global,class=BANK0,space=1,delta=1
     8                           	psect	dataBANK0,global,class=BANK0,space=1,delta=1
     9                           	psect	cstackCOMMON,global,class=COMMON,space=1,delta=1
    10                           	psect	cstackBANK0,global,class=BANK0,space=1,delta=1
    11                           	psect	maintext,global,class=CODE,merge=1,split=1,delta=2
    12                           	psect	text1,local,class=CODE,merge=1,delta=2
    13                           	psect	text2,local,class=CODE,merge=1,delta=2
    14                           	psect	text3,local,class=CODE,merge=1,delta=2
    15                           	psect	text4,local,class=CODE,merge=1,delta=2
    16                           	psect	text5,local,class=CODE,merge=1,delta=2
    17                           	psect	text6,local,class=CODE,merge=1,delta=2,group=2
    18                           	psect	text7,local,class=CODE,merge=1,delta=2,group=2
    19                           	psect	text8,local,class=CODE,merge=1,delta=2,group=2
    20                           	psect	text9,local,class=CODE,merge=1,delta=2
    21                           	psect	text10,local,class=CODE,merge=1,delta=2
    22                           	psect	text11,local,class=CODE,merge=1,delta=2
    23                           	psect	text12,local,class=CODE,merge=1,delta=2
    24                           	psect	text13,local,class=CODE,merge=1,delta=2
    25                           	psect	text14,local,class=CODE,merge=1,delta=2,group=1
    26                           	psect	text15,local,class=CODE,merge=1,delta=2
    27                           	dabs	1,0x7E,2
    28  0000                     
    29                           ; Version 1.41
    30                           ; Generated 25/01/2017 GMT
    31                           ; 
    32                           ; Copyright © 2017, Microchip Technology Inc. and its subsidiaries ("Microchip")
    33                           ; All rights reserved.
    34                           ; 
    35                           ; This software is developed by Microchip Technology Inc. and its subsidiaries ("Microch
      +                          ip").
    36                           ; 
    37                           ; Redistribution and use in source and binary forms, with or without modification, are
    38                           ; permitted provided that the following conditions are met:
    39                           ; 
    40                           ;     1. Redistributions of source code must retain the above copyright notice, this lis
      +                          t of
    41                           ;        conditions and the following disclaimer.
    42                           ; 
    43                           ;     2. Redistributions in binary form must reproduce the above copyright notice, this 
      +                          list
    44                           ;        of conditions and the following disclaimer in the documentation and/or other
    45                           ;        materials provided with the distribution.
    46                           ; 
    47                           ;     3. Microchip's name may not be used to endorse or promote products derived from th
      +                          is
    48                           ;        software without specific prior written permission.
    49                           ; 
    50                           ; THIS SOFTWARE IS PROVIDED BY MICROCHIP "AS IS" AND ANY EXPRESS OR IMPLIED WARRANTIES,
    51                           ; INCLUDING, BUT NOT LIMITED TO, THE IMPLIED WARRANTIES OF MERCHANTABILITY AND FITNESS F
      +                          OR
    52                           ; PURPOSE ARE DISCLAIMED.  IN NO EVENT SHALL MICROCHIP BE LIABLE FOR ANY DIRECT, INDIREC
      +                          T,
    53                           ; INCIDENTAL, SPECIAL, EXEMPLARY, OR CONSEQUENTIAL DAMAGES (INCLUDING BUT NOT LIMITED TO
    54                           ; PROCUREMENT OF SUBSTITUTE GOODS OR SERVICES; LOSS OF USE, DATA OR PROFITS; OR BUSINESS
    55                           ; INTERRUPTION) HOWSOEVER CAUSED AND ON ANY THEORY OF LIABILITY, WHETHER IN CONTRACT, ST
      +                          RICT
    56                           ; LIABILITY, OR TORT (INCLUDING NEGLIGENCE OR OTHERWISE) ARISING IN ANY WAY OUT OF THE U
      +                          SE OF
    57                           ; THIS SOFTWARE, EVEN IF ADVISED OF THE POSSIBILITY OF SUCH DAMAGE.
    58                           ; 
    59                           ; 
    60                           ; Code-generator required, PIC16F1827 Definitions
    61                           ; 
    62                           ; SFR Addresses
    63  0000                     	;# 
    64  0001                     	;# 
    65  0002                     	;# 
    66  0003                     	;# 
    67  0004                     	;# 
    68  0005                     	;# 
    69  0006                     	;# 
    70  0007                     	;# 
    71  0008                     	;# 
    72  0009                     	;# 
    73  000A                     	;# 
    74  000B                     	;# 
    75  000C                     	;# 
    76  000D                     	;# 
    77  0011                     	;# 
    78  0012                     	;# 
    79  0013                     	;# 
    80  0014                     	;# 
    81  0015                     	;# 
    82  0016                     	;# 
    83  0016                     	;# 
    84  0017                     	;# 
    85  0018                     	;# 
    86  0019                     	;# 
    87  001A                     	;# 
    88  001B                     	;# 
    89  001C                     	;# 
    90  001E                     	;# 
    91  001F                     	;# 
    92  008C                     	;# 
    93  008D                     	;# 
    94  0091                     	;# 
    95  0092                     	;# 
    96  0093                     	;# 
    97  0094                     	;# 
    98  0095                     	;# 
    99  0096                     	;# 
   100  0097                     	;# 
   101  0098                     	;# 
   102  0099                     	;# 
   103  009A                     	;# 
   104  009B                     	;# 
   105  009B                     	;# 
   106  009C                     	;# 
   107  009D                     	;# 
   108  009E                     	;# 
   109  010C                     	;# 
   110  010D                     	;# 
   111  0111                     	;# 
   112  0112                     	;# 
   113  0113                     	;# 
   114  0114                     	;# 
   115  0115                     	;# 
   116  0116                     	;# 
   117  0117                     	;# 
   118  0118                     	;# 
   119  0119                     	;# 
   120  011A                     	;# 
   121  011B                     	;# 
   122  011D                     	;# 
   123  011E                     	;# 
   124  018C                     	;# 
   125  018D                     	;# 
   126  0191                     	;# 
   127  0191                     	;# 
   128  0192                     	;# 
   129  0193                     	;# 
   130  0193                     	;# 
   131  0193                     	;# 
   132  0194                     	;# 
   133  0195                     	;# 
   134  0196                     	;# 
   135  0199                     	;# 
   136  019A                     	;# 
   137  019B                     	;# 
   138  019B                     	;# 
   139  019B                     	;# 
   140  019B                     	;# 
   141  019C                     	;# 
   142  019C                     	;# 
   143  019D                     	;# 
   144  019E                     	;# 
   145  019F                     	;# 
   146  020C                     	;# 
   147  020D                     	;# 
   148  0211                     	;# 
   149  0211                     	;# 
   150  0212                     	;# 
   151  0212                     	;# 
   152  0213                     	;# 
   153  0213                     	;# 
   154  0214                     	;# 
   155  0214                     	;# 
   156  0215                     	;# 
   157  0215                     	;# 
   158  0215                     	;# 
   159  0216                     	;# 
   160  0216                     	;# 
   161  0217                     	;# 
   162  0217                     	;# 
   163  0219                     	;# 
   164  021A                     	;# 
   165  021B                     	;# 
   166  021C                     	;# 
   167  021D                     	;# 
   168  021E                     	;# 
   169  021F                     	;# 
   170  0291                     	;# 
   171  0291                     	;# 
   172  0292                     	;# 
   173  0293                     	;# 
   174  0294                     	;# 
   175  0295                     	;# 
   176  0295                     	;# 
   177  0296                     	;# 
   178  0298                     	;# 
   179  0298                     	;# 
   180  0299                     	;# 
   181  029A                     	;# 
   182  029B                     	;# 
   183  029C                     	;# 
   184  029C                     	;# 
   185  029D                     	;# 
   186  029E                     	;# 
   187  029E                     	;# 
   188  0311                     	;# 
   189  0311                     	;# 
   190  0312                     	;# 
   191  0313                     	;# 
   192  0318                     	;# 
   193  0318                     	;# 
   194  0319                     	;# 
   195  031A                     	;# 
   196  0394                     	;# 
   197  0395                     	;# 
   198  0396                     	;# 
   199  039A                     	;# 
   200  039C                     	;# 
   201  039D                     	;# 
   202  039E                     	;# 
   203  039F                     	;# 
   204  0415                     	;# 
   205  0416                     	;# 
   206  0417                     	;# 
   207  041C                     	;# 
   208  041D                     	;# 
   209  041E                     	;# 
   210  0FE4                     	;# 
   211  0FE5                     	;# 
   212  0FE6                     	;# 
   213  0FE7                     	;# 
   214  0FE8                     	;# 
   215  0FE9                     	;# 
   216  0FEA                     	;# 
   217  0FEB                     	;# 
   218  0FED                     	;# 
   219  0FEE                     	;# 
   220  0FEF                     	;# 
   221  0000                     	;# 
   222  0001                     	;# 
   223  0002                     	;# 
   224  0003                     	;# 
   225  0004                     	;# 
   226  0005                     	;# 
   227  0006                     	;# 
   228  0007                     	;# 
   229  0008                     	;# 
   230  0009                     	;# 
   231  000A                     	;# 
   232  000B                     	;# 
   233  000C                     	;# 
   234  000D                     	;# 
   235  0011                     	;# 
   236  0012                     	;# 
   237  0013                     	;# 
   238  0014                     	;# 
   239  0015                     	;# 
   240  0016                     	;# 
   241  0016                     	;# 
   242  0017                     	;# 
   243  0018                     	;# 
   244  0019                     	;# 
   245  001A                     	;# 
   246  001B                     	;# 
   247  001C                     	;# 
   248  001E                     	;# 
   249  001F                     	;# 
   250  008C                     	;# 
   251  008D                     	;# 
   252  0091                     	;# 
   253  0092                     	;# 
   254  0093                     	;# 
   255  0094                     	;# 
   256  0095                     	;# 
   257  0096                     	;# 
   258  0097                     	;# 
   259  0098                     	;# 
   260  0099                     	;# 
   261  009A                     	;# 
   262  009B                     	;# 
   263  009B                     	;# 
   264  009C                     	;# 
   265  009D                     	;# 
   266  009E                     	;# 
   267  010C                     	;# 
   268  010D                     	;# 
   269  0111                     	;# 
   270  0112                     	;# 
   271  0113                     	;# 
   272  0114                     	;# 
   273  0115                     	;# 
   274  0116                     	;# 
   275  0117                     	;# 
   276  0118                     	;# 
   277  0119                     	;# 
   278  011A                     	;# 
   279  011B                     	;# 
   280  011D                     	;# 
   281  011E                     	;# 
   282  018C                     	;# 
   283  018D                     	;# 
   284  0191                     	;# 
   285  0191                     	;# 
   286  0192                     	;# 
   287  0193                     	;# 
   288  0193                     	;# 
   289  0193                     	;# 
   290  0194                     	;# 
   291  0195                     	;# 
   292  0196                     	;# 
   293  0199                     	;# 
   294  019A                     	;# 
   295  019B                     	;# 
   296  019B                     	;# 
   297  019B                     	;# 
   298  019B                     	;# 
   299  019C                     	;# 
   300  019C                     	;# 
   301  019D                     	;# 
   302  019E                     	;# 
   303  019F                     	;# 
   304  020C                     	;# 
   305  020D                     	;# 
   306  0211                     	;# 
   307  0211                     	;# 
   308  0212                     	;# 
   309  0212                     	;# 
   310  0213                     	;# 
   311  0213                     	;# 
   312  0214                     	;# 
   313  0214                     	;# 
   314  0215                     	;# 
   315  0215                     	;# 
   316  0215                     	;# 
   317  0216                     	;# 
   318  0216                     	;# 
   319  0217                     	;# 
   320  0217                     	;# 
   321  0219                     	;# 
   322  021A                     	;# 
   323  021B                     	;# 
   324  021C                     	;# 
   325  021D                     	;# 
   326  021E                     	;# 
   327  021F                     	;# 
   328  0291                     	;# 
   329  0291                     	;# 
   330  0292                     	;# 
   331  0293                     	;# 
   332  0294                     	;# 
   333  0295                     	;# 
   334  0295                     	;# 
   335  0296                     	;# 
   336  0298                     	;# 
   337  0298                     	;# 
   338  0299                     	;# 
   339  029A                     	;# 
   340  029B                     	;# 
   341  029C                     	;# 
   342  029C                     	;# 
   343  029D                     	;# 
   344  029E                     	;# 
   345  029E                     	;# 
   346  0311                     	;# 
   347  0311                     	;# 
   348  0312                     	;# 
   349  0313                     	;# 
   350  0318                     	;# 
   351  0318                     	;# 
   352  0319                     	;# 
   353  031A                     	;# 
   354  0394                     	;# 
   355  0395                     	;# 
   356  0396                     	;# 
   357  039A                     	;# 
   358  039C                     	;# 
   359  039D                     	;# 
   360  039E                     	;# 
   361  039F                     	;# 
   362  0415                     	;# 
   363  0416                     	;# 
   364  0417                     	;# 
   365  041C                     	;# 
   366  041D                     	;# 
   367  041E                     	;# 
   368  0FE4                     	;# 
   369  0FE5                     	;# 
   370  0FE6                     	;# 
   371  0FE7                     	;# 
   372  0FE8                     	;# 
   373  0FE9                     	;# 
   374  0FEA                     	;# 
   375  0FEB                     	;# 
   376  0FED                     	;# 
   377  0FEE                     	;# 
   378  0FEF                     	;# 
   379  0000                     	;# 
   380  0001                     	;# 
   381  0002                     	;# 
   382  0003                     	;# 
   383  0004                     	;# 
   384  0005                     	;# 
   385  0006                     	;# 
   386  0007                     	;# 
   387  0008                     	;# 
   388  0009                     	;# 
   389  000A                     	;# 
   390  000B                     	;# 
   391  000C                     	;# 
   392  000D                     	;# 
   393  0011                     	;# 
   394  0012                     	;# 
   395  0013                     	;# 
   396  0014                     	;# 
   397  0015                     	;# 
   398  0016                     	;# 
   399  0016                     	;# 
   400  0017                     	;# 
   401  0018                     	;# 
   402  0019                     	;# 
   403  001A                     	;# 
   404  001B                     	;# 
   405  001C                     	;# 
   406  001E                     	;# 
   407  001F                     	;# 
   408  008C                     	;# 
   409  008D                     	;# 
   410  0091                     	;# 
   411  0092                     	;# 
   412  0093                     	;# 
   413  0094                     	;# 
   414  0095                     	;# 
   415  0096                     	;# 
   416  0097                     	;# 
   417  0098                     	;# 
   418  0099                     	;# 
   419  009A                     	;# 
   420  009B                     	;# 
   421  009B                     	;# 
   422  009C                     	;# 
   423  009D                     	;# 
   424  009E                     	;# 
   425  010C                     	;# 
   426  010D                     	;# 
   427  0111                     	;# 
   428  0112                     	;# 
   429  0113                     	;# 
   430  0114                     	;# 
   431  0115                     	;# 
   432  0116                     	;# 
   433  0117                     	;# 
   434  0118                     	;# 
   435  0119                     	;# 
   436  011A                     	;# 
   437  011B                     	;# 
   438  011D                     	;# 
   439  011E                     	;# 
   440  018C                     	;# 
   441  018D                     	;# 
   442  0191                     	;# 
   443  0191                     	;# 
   444  0192                     	;# 
   445  0193                     	;# 
   446  0193                     	;# 
   447  0193                     	;# 
   448  0194                     	;# 
   449  0195                     	;# 
   450  0196                     	;# 
   451  0199                     	;# 
   452  019A                     	;# 
   453  019B                     	;# 
   454  019B                     	;# 
   455  019B                     	;# 
   456  019B                     	;# 
   457  019C                     	;# 
   458  019C                     	;# 
   459  019D                     	;# 
   460  019E                     	;# 
   461  019F                     	;# 
   462  020C                     	;# 
   463  020D                     	;# 
   464  0211                     	;# 
   465  0211                     	;# 
   466  0212                     	;# 
   467  0212                     	;# 
   468  0213                     	;# 
   469  0213                     	;# 
   470  0214                     	;# 
   471  0214                     	;# 
   472  0215                     	;# 
   473  0215                     	;# 
   474  0215                     	;# 
   475  0216                     	;# 
   476  0216                     	;# 
   477  0217                     	;# 
   478  0217                     	;# 
   479  0219                     	;# 
   480  021A                     	;# 
   481  021B                     	;# 
   482  021C                     	;# 
   483  021D                     	;# 
   484  021E                     	;# 
   485  021F                     	;# 
   486  0291                     	;# 
   487  0291                     	;# 
   488  0292                     	;# 
   489  0293                     	;# 
   490  0294                     	;# 
   491  0295                     	;# 
   492  0295                     	;# 
   493  0296                     	;# 
   494  0298                     	;# 
   495  0298                     	;# 
   496  0299                     	;# 
   497  029A                     	;# 
   498  029B                     	;# 
   499  029C                     	;# 
   500  029C                     	;# 
   501  029D                     	;# 
   502  029E                     	;# 
   503  029E                     	;# 
   504  0311                     	;# 
   505  0311                     	;# 
   506  0312                     	;# 
   507  0313                     	;# 
   508  0318                     	;# 
   509  0318                     	;# 
   510  0319                     	;# 
   511  031A                     	;# 
   512  0394                     	;# 
   513  0395                     	;# 
   514  0396                     	;# 
   515  039A                     	;# 
   516  039C                     	;# 
   517  039D                     	;# 
   518  039E                     	;# 
   519  039F                     	;# 
   520  0415                     	;# 
   521  0416                     	;# 
   522  0417                     	;# 
   523  041C                     	;# 
   524  041D                     	;# 
   525  041E                     	;# 
   526  0FE4                     	;# 
   527  0FE5                     	;# 
   528  0FE6                     	;# 
   529  0FE7                     	;# 
   530  0FE8                     	;# 
   531  0FE9                     	;# 
   532  0FEA                     	;# 
   533  0FEB                     	;# 
   534  0FED                     	;# 
   535  0FEE                     	;# 
   536  0FEF                     	;# 
   537                           
   538                           	psect	idataBANK0
   539  0352                     __pidataBANK0:	
   540                           
   541                           ;initializer for main@F2994
   542  0352  3413               	retlw	19
   543  0353  3462               	retlw	98
   544  0354  340A               	retlw	10
   545  0355  3405               	retlw	5
   546  0356  3406               	retlw	6
   547  000D                     _PORTB	set	13
   548  000C                     _PORTA	set	12
   549  0064                     _RA4	set	100
   550  0063                     _RA3	set	99
   551  008D                     _TRISB	set	141
   552  008C                     _TRISA	set	140
   553  0099                     _OSCCON	set	153
   554  011E                     _APFCON1	set	286
   555  011D                     _APFCON0	set	285
   556  0191                     _EEADR	set	401
   557  0193                     _EEDATA	set	403
   558  0195                     _EECON1	set	405
   559  018D                     _ANSELB	set	397
   560  018C                     _ANSELA	set	396
   561  0CA8                     _RD	set	3240
   562  0CA9                     _WR	set	3241
   563                           
   564                           	psect	stringtext
   565  0800                     __pstringtext:	
   566  0800                     STR_3:	
   567  0800  3425               	retlw	37	;'%'
   568  0801  3430               	retlw	48	;'0'
   569  0802  3438               	retlw	56	;'8'
   570  0803  346C               	retlw	108	;'l'
   571  0804  3458               	retlw	88	;'X'
   572  0805  3420               	retlw	32	;' '
   573  0806  3400               	retlw	0
   574  0807                     STR_6:	
   575  0807  3420               	retlw	32	;' '
   576  0808  3425               	retlw	37	;'%'
   577  0809  3430               	retlw	48	;'0'
   578  080A  3438               	retlw	56	;'8'
   579  080B  344C               	retlw	76	;'L'
   580  080C  3458               	retlw	88	;'X'
   581  080D  3400               	retlw	0
   582  080E                     STR_4:	
   583  080E  3420               	retlw	32	;' '
   584  080F  3425               	retlw	37	;'%'
   585  0810  3430               	retlw	48	;'0'
   586  0811  3432               	retlw	50	;'2'
   587  0812  3458               	retlw	88	;'X'
   588  0813  3400               	retlw	0
   589  0814                     STR_5:	
   590  0814  3420               	retlw	32	;' '
   591  0815  3425               	retlw	37	;'%'
   592  0816  3430               	retlw	48	;'0'
   593  0817  3434               	retlw	52	;'4'
   594  0818  3458               	retlw	88	;'X'
   595  0819  3400               	retlw	0
   596  081A                     STR_1:	
   597  081A  3425               	retlw	37	;'%'
   598  081B  3464               	retlw	100	;'d'
   599  081C  3420               	retlw	32	;' '
   600  081D  3400               	retlw	0
   601  081E                     STR_2:	
   602  081E  340D               	retlw	13
   603  081F  3400               	retlw	0
   604                           
   605                           ; #config settings
   606  0000                     
   607                           	psect	cinit
   608  07EA                     start_initialization:	
   609  07EA                     __initialization:	
   610                           
   611                           ; Initialize objects allocated to BANK0
   612  07EA  3052               	movlw	low __pidataBANK0
   613  07EB  0084               	movwf	4
   614  07EC  3083               	movlw	(high __pidataBANK0)| (0+128)
   615  07ED  0085               	movwf	5
   616  07EE  0012               	moviw fsr0++
   617  07EF  00EA               	movwf	__pdataBANK0& (0+127)
   618  07F0  0012               	moviw fsr0++
   619  07F1  00EB               	movwf	(__pdataBANK0+1)& (0+127)
   620  07F2  0012               	moviw fsr0++
   621  07F3  00EC               	movwf	(__pdataBANK0+2)& (0+127)
   622  07F4  0012               	moviw fsr0++
   623  07F5  00ED               	movwf	(__pdataBANK0+3)& (0+127)
   624  07F6  0012               	moviw fsr0++
   625  07F7  00EE               	movwf	(__pdataBANK0+4)& (0+127)
   626                           
   627                           ; Clear objects allocated to BANK0
   628  07F8  01E5               	clrf	__pbssBANK0& (0+127)
   629  07F9  01E6               	clrf	(__pbssBANK0+1)& (0+127)
   630  07FA  01E7               	clrf	(__pbssBANK0+2)& (0+127)
   631  07FB  01E8               	clrf	(__pbssBANK0+3)& (0+127)
   632  07FC  01E9               	clrf	(__pbssBANK0+4)& (0+127)
   633  07FD                     end_of_initialization:	
   634                           ;End of C runtime variable initialization code
   635                           
   636  07FD                     __end_of__initialization:	
   637  07FD  0020               	movlb	0
   638  07FE  3184  2CBE         	ljmp	_main	;jump to C main() function
   639                           
   640                           	psect	bssBANK0
   641  0065                     __pbssBANK0:	
   642  0065                     _xfunc_in:	
   643  0065                     	ds	2
   644  0067                     _xfunc_out:	
   645  0067                     	ds	2
   646  0069                     _outptr:	
   647  0069                     	ds	1
   648                           
   649                           	psect	dataBANK0
   650  006A                     __pdataBANK0:	
   651  006A                     main@F2994:	
   652  006A                     	ds	5
   653                           
   654                           	psect	cstackCOMMON
   655  0070                     __pcstackCOMMON:	
   656  0070                     ?_Basic_Init:	
   657  0070                     ??_Basic_Init:	
   658                           ; 1 bytes @ 0x0
   659                           
   660  0070                     ?_LCD_Init:	
   661                           ; 1 bytes @ 0x0
   662                           
   663  0070                     ?_eeprom_read:	
   664                           ; 1 bytes @ 0x0
   665                           
   666  0070                     ??_eeprom_read:	
   667                           ; 1 bytes @ 0x0
   668                           
   669  0070                     ?_LCD_DisplayClear:	
   670                           ; 1 bytes @ 0x0
   671                           
   672  0070                     ?_main:	
   673                           ; 1 bytes @ 0x0
   674                           
   675  0070                     ?_LCD_WriteData:	
   676                           ; 1 bytes @ 0x0
   677                           
   678  0070                     ??_LCD_WriteData:	
   679                           ; 1 bytes @ 0x0
   680                           
   681  0070                     ?_xputc:	
   682                           ; 1 bytes @ 0x0
   683                           
   684  0070                     ?_xputs:	
   685                           ; 1 bytes @ 0x0
   686                           
   687  0070                     ?___wmul:	
   688                           ; 1 bytes @ 0x0
   689                           
   690  0070                     ?___lldiv:	
   691                           ; 2 bytes @ 0x0
   692                           
   693  0070                     ?___llmod:	
   694                           ; 4 bytes @ 0x0
   695                           
   696  0070                     ___wmul@multiplier:	
   697                           ; 4 bytes @ 0x0
   698                           
   699  0070                     ___lldiv@divisor:	
   700                           ; 2 bytes @ 0x0
   701                           
   702  0070                     ___llmod@divisor:	
   703                           ; 4 bytes @ 0x0
   704                           
   705                           
   706                           ; 4 bytes @ 0x0
   707  0070                     	ds	2
   708  0072                     LCD_WriteData@point:	
   709  0072                     ___wmul@multiplicand:	
   710                           ; 1 bytes @ 0x2
   711                           
   712                           
   713                           ; 2 bytes @ 0x2
   714  0072                     	ds	1
   715  0073                     ?_LCD_Put:	
   716  0073                     ?_LCD_CursorPosition:	
   717                           ; 1 bytes @ 0x3
   718                           
   719  0073                     ??_LCD_DisplayClear:	
   720                           ; 1 bytes @ 0x3
   721                           
   722  0073                     LCD_Put@word:	
   723                           ; 1 bytes @ 0x3
   724                           
   725  0073                     LCD_CursorPosition@ty:	
   726                           ; 1 bytes @ 0x3
   727                           
   728  0073                     eeprom_read@addr:	
   729                           ; 1 bytes @ 0x3
   730                           
   731                           
   732                           ; 1 bytes @ 0x3
   733  0073                     	ds	1
   734  0074                     ??_LCD_Init:	
   735  0074                     ??_LCD_Put:	
   736                           ; 1 bytes @ 0x4
   737                           
   738  0074                     ??_LCD_CursorPosition:	
   739                           ; 1 bytes @ 0x4
   740                           
   741  0074                     ?_EEPROM_MultiRead:	
   742                           ; 1 bytes @ 0x4
   743                           
   744  0074                     ??_xputc:	
   745                           ; 1 bytes @ 0x4
   746                           
   747  0074                     ??___wmul:	
   748                           ; 1 bytes @ 0x4
   749                           
   750  0074                     EEPROM_MultiRead@size:	
   751                           ; 1 bytes @ 0x4
   752                           
   753  0074                     ___wmul@product:	
   754                           ; 1 bytes @ 0x4
   755                           
   756  0074                     ___lldiv@dividend:	
   757                           ; 2 bytes @ 0x4
   758                           
   759  0074                     ___llmod@dividend:	
   760                           ; 4 bytes @ 0x4
   761                           
   762                           
   763                           ; 4 bytes @ 0x4
   764  0074                     	ds	1
   765  0075                     EEPROM_MultiRead@addr:	
   766  0075                     LCD_CursorPosition@tx:	
   767                           ; 1 bytes @ 0x5
   768                           
   769  0075                     xputc@c:	
   770                           ; 1 bytes @ 0x5
   771                           
   772                           
   773                           ; 1 bytes @ 0x5
   774  0075                     	ds	1
   775  0076                     ??_EEPROM_MultiRead:	
   776  0076                     ??_xputs:	
   777                           ; 1 bytes @ 0x6
   778                           
   779                           
   780                           ; 1 bytes @ 0x6
   781  0076                     	ds	1
   782  0077                     xputs@str:	
   783                           
   784                           ; 1 bytes @ 0x7
   785  0077                     	ds	1
   786  0078                     ??___lldiv:	
   787  0078                     ??___llmod:	
   788                           ; 1 bytes @ 0x8
   789                           
   790                           
   791                           ; 1 bytes @ 0x8
   792  0078                     	ds	1
   793  0079                     EEPROM_MultiRead@pData:	
   794  0079                     ___llmod@counter:	
   795                           ; 1 bytes @ 0x9
   796                           
   797  0079                     ___lldiv@quotient:	
   798                           ; 1 bytes @ 0x9
   799                           
   800                           
   801                           ; 4 bytes @ 0x9
   802  0079                     	ds	1
   803  007A                     EEPROM_MultiRead@i:	
   804                           
   805                           ; 1 bytes @ 0xA
   806  007A                     	ds	3
   807  007D                     ___lldiv@counter:	
   808                           
   809                           ; 1 bytes @ 0xD
   810  007D                     	ds	1
   811                           
   812                           	psect	cstackBANK0
   813  0020                     __pcstackBANK0:	
   814  0020                     ?_xvprintf:	
   815  0020                     xvprintf@fmt:	
   816                           ; 1 bytes @ 0x0
   817                           
   818                           
   819                           ; 2 bytes @ 0x0
   820  0020                     	ds	2
   821  0022                     xvprintf@arp:	
   822                           
   823                           ; 1 bytes @ 0x2
   824  0022                     	ds	1
   825  0023                     ??_xvprintf:	
   826                           
   827                           ; 1 bytes @ 0x3
   828  0023                     	ds	4
   829  0027                     xvprintf@s:	
   830                           
   831                           ; 16 bytes @ 0x7
   832  0027                     	ds	16
   833  0037                     _xvprintf$186:	
   834                           
   835                           ; 4 bytes @ 0x17
   836  0037                     	ds	4
   837  003B                     _xvprintf$187:	
   838                           
   839                           ; 2 bytes @ 0x1B
   840  003B                     	ds	2
   841  003D                     _xvprintf$188:	
   842                           
   843                           ; 2 bytes @ 0x1D
   844  003D                     	ds	2
   845  003F                     xvprintf@p:	
   846                           
   847                           ; 1 bytes @ 0x1F
   848  003F                     	ds	1
   849  0040                     xvprintf@r:	
   850                           
   851                           ; 2 bytes @ 0x20
   852  0040                     	ds	2
   853  0042                     xvprintf@w:	
   854                           
   855                           ; 2 bytes @ 0x22
   856  0042                     	ds	2
   857  0044                     xvprintf@j:	
   858                           
   859                           ; 2 bytes @ 0x24
   860  0044                     	ds	2
   861  0046                     xvprintf@v:	
   862                           
   863                           ; 4 bytes @ 0x26
   864  0046                     	ds	4
   865  004A                     xvprintf@f:	
   866                           
   867                           ; 2 bytes @ 0x2A
   868  004A                     	ds	2
   869  004C                     xvprintf@i:	
   870                           
   871                           ; 2 bytes @ 0x2C
   872  004C                     	ds	2
   873  004E                     xvprintf@d:	
   874                           
   875                           ; 1 bytes @ 0x2E
   876  004E                     	ds	1
   877  004F                     xvprintf@c:	
   878                           
   879                           ; 1 bytes @ 0x2F
   880  004F                     	ds	1
   881  0050                     ?_xprintf:	
   882  0050                     xprintf@fmt:	
   883                           ; 1 bytes @ 0x30
   884                           
   885                           
   886                           ; 2 bytes @ 0x30
   887  0050                     	ds	6
   888  0056                     ??_xprintf:	
   889                           
   890                           ; 1 bytes @ 0x36
   891  0056                     	ds	1
   892  0057                     xprintf@arp:	
   893                           
   894                           ; 1 bytes @ 0x37
   895  0057                     	ds	1
   896  0058                     ??_main:	
   897                           
   898                           ; 1 bytes @ 0x38
   899  0058                     	ds	2
   900  005A                     main@sample:	
   901                           
   902                           ; 5 bytes @ 0x3A
   903  005A                     	ds	5
   904  005F                     main@readdat:	
   905                           
   906                           ; 5 bytes @ 0x3F
   907  005F                     	ds	5
   908  0064                     main@i:	
   909                           
   910                           ; 1 bytes @ 0x44
   911  0064                     	ds	1
   912                           
   913                           	psect	maintext
   914  04BE                     __pmaintext:	
   915 ;;
   916 ;;Main: autosize = 0, tempsize = 2, incstack = 0, save=0
   917 ;;
   918 ;; *************** function _main *****************
   919 ;; Defined at:
   920 ;;		line 13 in file "main.c"
   921 ;; Parameters:    Size  Location     Type
   922 ;;		None
   923 ;; Auto vars:     Size  Location     Type
   924 ;;  i               1   68[BANK0 ] unsigned char 
   925 ;;  readdat         5   63[BANK0 ] unsigned char [5]
   926 ;;  sample          5   58[BANK0 ] unsigned char [5]
   927 ;; Return value:  Size  Location     Type
   928 ;;                  1    wreg      char 
   929 ;; Registers used:
   930 ;;		wreg, fsr0l, fsr0h, fsr1l, fsr1h, status,2, status,0, pclath, cstack
   931 ;; Tracked objects:
   932 ;;		On entry : B1F/0
   933 ;;		On exit  : 0/0
   934 ;;		Unchanged: 0/0
   935 ;; Data sizes:     COMMON   BANK0   BANK1   BANK2   BANK3   BANK4
   936 ;;      Params:         0       0       0       0       0       0
   937 ;;      Locals:         0      11       0       0       0       0
   938 ;;      Temps:          0       2       0       0       0       0
   939 ;;      Totals:         0      13       0       0       0       0
   940 ;;Total ram usage:       13 bytes
   941 ;; Hardware stack levels required when called:    6
   942 ;; This function calls:
   943 ;;		_Basic_Init
   944 ;;		_EEPROM_MultiRead
   945 ;;		_LCD_CursorPosition
   946 ;;		_LCD_Init
   947 ;;		_xprintf
   948 ;; This function is called by:
   949 ;;		Startup code after reset
   950 ;; This function uses a non-reentrant model
   951 ;;
   952                           
   953                           
   954                           ;psect for function _main
   955  04BE                     _main:	
   956                           
   957                           ;main.c: 15: Basic_Init();
   958                           
   959                           ;incstack = 0
   960                           ; Regs used in _main: [wreg-fsr1h+status,2+status,0+pclath+cstack]
   961  04BE  3183  238F  3184   	fcall	_Basic_Init
   962                           
   963                           ;main.c: 16: uint8_t sample[5]={
   964                           ;main.c: 17: 19,98,10,5,6
   965                           ;main.c: 18: };
   966  04C1  306A               	movlw	low main@F2994
   967  04C2  0086               	movwf	6
   968  04C3  3000               	movlw	high main@F2994
   969  04C4  0087               	movwf	7
   970  04C5  305A               	movlw	low main@sample
   971  04C6  0084               	movwf	4
   972  04C7  3000               	movlw	high main@sample
   973  04C8  0085               	movwf	5
   974  04C9  3005               	movlw	5
   975  04CA  0020               	movlb	0	; select bank0
   976  04CB  00D8               	movwf	??_main
   977  04CC                     u1530:	
   978  04CC  0016               	moviw fsr1++
   979  04CD  001A               	movwi fsr0++
   980  04CE  0BD8               	decfsz	??_main,f
   981  04CF  2CCC               	goto	u1530
   982                           
   983                           ;main.c: 19: uint8_t readdat[5];
   984                           ;main.c: 20: LCD_Init();
   985  04D0  3185  2557  3184   	fcall	_LCD_Init
   986                           
   987                           ;main.c: 21: xfunc_out = (void(*)(unsigned char))(LCD_Put);
   988  04D3  3057               	movlw	low _LCD_Put
   989  04D4  0020               	movlb	0	; select bank0
   990  04D5  00E7               	movwf	_xfunc_out
   991  04D6  3003               	movlw	high _LCD_Put
   992  04D7  00E8               	movwf	_xfunc_out+1
   993  04D8                     l1810:	
   994                           ;main.c: 23: while(1)
   995                           
   996                           
   997                           ;main.c: 24: {
   998                           ;main.c: 26: LCD_CursorPosition(0,0);
   999  04D8  01F3               	clrf	LCD_CursorPosition@ty
  1000  04D9  3000               	movlw	0
  1001  04DA  3183  23A4  3184   	fcall	_LCD_CursorPosition
  1002                           
  1003                           ;main.c: 27: EEPROM_MultiRead(readdat,5,0);
  1004  04DD  3005               	movlw	5
  1005  04DE  0020               	movlb	0	; select bank0
  1006  04DF  00D8               	movwf	??_main
  1007  04E0  0858               	movf	??_main,w
  1008  04E1  00F4               	movwf	EEPROM_MultiRead@size
  1009  04E2  01F5               	clrf	EEPROM_MultiRead@addr
  1010  04E3  305F               	movlw	(low (main@readdat| 0))& (0+255)
  1011  04E4  3183  23EC  3184   	fcall	_EEPROM_MultiRead
  1012                           
  1013                           ;main.c: 28: for(uint8_t i = 0;i<5;i++)
  1014  04E7  0020               	movlb	0	; select bank0
  1015  04E8  01E4               	clrf	main@i
  1016  04E9                     L1:	
  1017  04E9  3005               	movlw	5
  1018  04EA  0264               	subwf	main@i,w
  1019  04EB  1803               	btfsc	3,0
  1020  04EC  2CD8               	goto	l1810
  1021                           
  1022                           ;main.c: 29: xprintf("%d ",readdat[i]);
  1023  04ED  301A               	movlw	low (STR_1| (0+32768))
  1024  04EE  00D0               	movwf	xprintf@fmt
  1025  04EF  3088               	movlw	high (STR_1| (0+32768))
  1026  04F0  00D1               	movwf	xprintf@fmt+1
  1027  04F1  0864               	movf	main@i,w
  1028  04F2  3E5F               	addlw	(low (main@readdat| 0))& (0+255)
  1029  04F3  0086               	movwf	6
  1030  04F4  0187               	clrf	7
  1031  04F5  0801               	movf	1,w
  1032  04F6  00D8               	movwf	??_main
  1033  04F7  01D9               	clrf	??_main+1
  1034  04F8  0858               	movf	??_main,w
  1035  04F9  00D2               	movwf	?_xprintf+2
  1036  04FA  0859               	movf	??_main+1,w
  1037  04FB  00D3               	movwf	?_xprintf+3
  1038  04FC  3183  236C  3184   	fcall	_xprintf
  1039  04FF  3001               	movlw	1
  1040  0500  0020               	movlb	0	; select bank0
  1041  0501  00D8               	movwf	??_main
  1042  0502  0858               	movf	??_main,w
  1043  0503  07E4               	addwf	main@i,f
  1044  0504  2CE9               	goto	L1
  1045  0505                     __end_of_main:	
  1046                           ;main.c: 30: }
  1047                           ;main.c: 32: return 0;
  1048                           ;	Return value of _main is never used
  1049                           
  1050                           
  1051                           	psect	text1
  1052  036C                     __ptext1:	
  1053 ;; *************** function _xprintf *****************
  1054 ;; Defined at:
  1055 ;;		line 165 in file "xprintf.c"
  1056 ;; Parameters:    Size  Location     Type
  1057 ;;  fmt             2   48[BANK0 ] PTR const unsigned char 
  1058 ;;		 -> STR_6(7), STR_5(6), STR_4(6), STR_3(7), 
  1059 ;;		 -> STR_1(4), 
  1060 ;; Auto vars:     Size  Location     Type
  1061 ;;  arp             1   55[BANK0 ] PTR void [1]
  1062 ;;		 -> ?_xfprintf(1), ?_xsprintf(1), ?_xprintf(1), 
  1063 ;; Return value:  Size  Location     Type
  1064 ;;                  1    wreg      void 
  1065 ;; Registers used:
  1066 ;;		wreg, fsr0l, fsr0h, fsr1l, fsr1h, status,2, status,0, pclath, cstack
  1067 ;; Tracked objects:
  1068 ;;		On entry : 0/0
  1069 ;;		On exit  : 0/0
  1070 ;;		Unchanged: 0/0
  1071 ;; Data sizes:     COMMON   BANK0   BANK1   BANK2   BANK3   BANK4
  1072 ;;      Params:         0       6       0       0       0       0
  1073 ;;      Locals:         0       1       0       0       0       0
  1074 ;;      Temps:          0       1       0       0       0       0
  1075 ;;      Totals:         0       8       0       0       0       0
  1076 ;;Total ram usage:        8 bytes
  1077 ;; Hardware stack levels used:    1
  1078 ;; Hardware stack levels required when called:    5
  1079 ;; This function calls:
  1080 ;;		_xvprintf
  1081 ;; This function is called by:
  1082 ;;		_main
  1083 ;;		_put_dump
  1084 ;; This function uses a non-reentrant model
  1085 ;;
  1086                           
  1087                           
  1088                           ;psect for function _xprintf
  1089  036C                     _xprintf:	
  1090                           
  1091                           ;xprintf.c: 170: va_list arp;
  1092                           ;xprintf.c: 173: *arp = __va_start();
  1093                           
  1094                           ;incstack = 0
  1095                           ; Regs used in _xprintf: [wreg-fsr1h+status,2+status,0+pclath+cstack]
  1096  036C  3052               	movlw	(low ((?_xprintf| 0+2)))& (0+255)
  1097  036D  0020               	movlb	0	; select bank0
  1098  036E  00D6               	movwf	??_xprintf
  1099  036F  0856               	movf	??_xprintf,w
  1100  0370  00D7               	movwf	xprintf@arp
  1101                           
  1102                           ;xprintf.c: 174: xvprintf(fmt, arp);
  1103  0371  0851               	movf	xprintf@fmt+1,w
  1104  0372  00A1               	movwf	xvprintf@fmt+1
  1105  0373  0850               	movf	xprintf@fmt,w
  1106  0374  00A0               	movwf	xvprintf@fmt
  1107  0375  3057               	movlw	(low (xprintf@arp| 0))& (0+255)
  1108  0376  00D6               	movwf	??_xprintf
  1109  0377  0856               	movf	??_xprintf,w
  1110  0378  00A2               	movwf	xvprintf@arp
  1111  0379  3185  25C0         	fcall	_xvprintf
  1112  037B  0008               	return
  1113  037C                     __end_of_xprintf:	
  1114                           
  1115                           	psect	text2
  1116  05C0                     __ptext2:	
  1117 ;; *************** function _xvprintf *****************
  1118 ;; Defined at:
  1119 ;;		line 88 in file "xprintf.c"
  1120 ;; Parameters:    Size  Location     Type
  1121 ;;  fmt             2    0[BANK0 ] PTR const unsigned char 
  1122 ;;		 -> STR_6(7), STR_5(6), STR_4(6), STR_3(7), 
  1123 ;;		 -> STR_1(4), 
  1124 ;;  arp             1    2[BANK0 ] PTR PTR void 
  1125 ;;		 -> xfprintf@arp(1), xsprintf@arp(1), xprintf@arp(1), 
  1126 ;; Auto vars:     Size  Location     Type
  1127 ;;  s              16    7[BANK0 ] unsigned char [16]
  1128 ;;  v               4   38[BANK0 ] unsigned long 
  1129 ;;  i               2   44[BANK0 ] unsigned int 
  1130 ;;  f               2   42[BANK0 ] unsigned int 
  1131 ;;  j               2   36[BANK0 ] unsigned int 
  1132 ;;  w               2   34[BANK0 ] unsigned int 
  1133 ;;  r               2   32[BANK0 ] unsigned int 
  1134 ;;  c               1   47[BANK0 ] unsigned char 
  1135 ;;  d               1   46[BANK0 ] unsigned char 
  1136 ;;  p               1   31[BANK0 ] PTR unsigned char 
  1137 ;;		 -> ?_xfprintf(1), ?_xsprintf(1), ?_xprintf(1), 
  1138 ;; Return value:  Size  Location     Type
  1139 ;;                  1    wreg      void 
  1140 ;; Registers used:
  1141 ;;		wreg, fsr0l, fsr0h, fsr1l, fsr1h, status,2, status,0, pclath, cstack
  1142 ;; Tracked objects:
  1143 ;;		On entry : 0/0
  1144 ;;		On exit  : 0/0
  1145 ;;		Unchanged: 0/0
  1146 ;; Data sizes:     COMMON   BANK0   BANK1   BANK2   BANK3   BANK4
  1147 ;;      Params:         0       3       0       0       0       0
  1148 ;;      Locals:         0      41       0       0       0       0
  1149 ;;      Temps:          0       4       0       0       0       0
  1150 ;;      Totals:         0      48       0       0       0       0
  1151 ;;Total ram usage:       48 bytes
  1152 ;; Hardware stack levels used:    1
  1153 ;; Hardware stack levels required when called:    4
  1154 ;; This function calls:
  1155 ;;		___lldiv
  1156 ;;		___llmod
  1157 ;;		___wmul
  1158 ;;		_xputc
  1159 ;;		_xputs
  1160 ;; This function is called by:
  1161 ;;		_xprintf
  1162 ;;		_xsprintf
  1163 ;;		_xfprintf
  1164 ;; This function uses a non-reentrant model
  1165 ;;
  1166                           
  1167                           
  1168                           ;psect for function _xvprintf
  1169  05C0                     _xvprintf:	
  1170  05C0                     l132:	
  1171                           ;incstack = 0
  1172                           ; Regs used in _xvprintf: [wreg-fsr1h+status,2+status,0+pclath+cstack]
  1173                           ;xprintf.c: 93: unsigned int r, i, j, w, f;
  1174                           ;xprintf.c: 94: unsigned long v;
  1175                           ;xprintf.c: 95: char s[16], c, d, *p;
  1176                           ;xprintf.c: 98: for (;;) {
  1177                           
  1178                           
  1179                           ;xprintf.c: 99: c = *fmt++;
  1180  05C0  0020               	movlb	0	; select bank0
  1181  05C1  0820               	movf	xvprintf@fmt,w
  1182  05C2  0084               	movwf	4
  1183  05C3  0821               	movf	xvprintf@fmt+1,w
  1184  05C4  0085               	movwf	5
  1185  05C5  0800               	movf	0,w	;code access
  1186  05C6  00A3               	movwf	??_xvprintf
  1187  05C7  0823               	movf	??_xvprintf,w
  1188  05C8  00CF               	movwf	xvprintf@c
  1189  05C9  3001               	movlw	1
  1190  05CA  07A0               	addwf	xvprintf@fmt,f
  1191  05CB  3000               	movlw	0
  1192  05CC  3DA1               	addwfc	xvprintf@fmt+1,f
  1193                           
  1194                           ;xprintf.c: 100: if (!c) break;
  1195  05CD  084F               	movf	xvprintf@c,w
  1196  05CE  1903               	btfsc	3,2
  1197  05CF  0008               	return
  1198                           
  1199                           ;xprintf.c: 101: if (c != '%') {
  1200  05D0  3025               	movlw	37
  1201  05D1  064F               	xorwf	xvprintf@c,w
  1202  05D2  1903               	btfsc	3,2
  1203  05D3  2DD9               	goto	l1536
  1204                           
  1205                           ;xprintf.c: 102: xputc(c); continue;
  1206  05D4  084F               	movf	xvprintf@c,w
  1207  05D5  3184  2415  3185   	fcall	_xputc
  1208  05D8  2DC0               	goto	l132
  1209  05D9                     l1536:	
  1210                           
  1211                           ;xprintf.c: 103: }
  1212                           ;xprintf.c: 104: f = 0;
  1213  05D9  0020               	movlb	0	; select bank0
  1214  05DA  01CA               	clrf	xvprintf@f
  1215  05DB  01CB               	clrf	xvprintf@f+1
  1216                           
  1217                           ;xprintf.c: 105: c = *fmt++;
  1218  05DC  0820               	movf	xvprintf@fmt,w
  1219  05DD  0084               	movwf	4
  1220  05DE  0821               	movf	xvprintf@fmt+1,w
  1221  05DF  0085               	movwf	5
  1222  05E0  0800               	movf	0,w	;code access
  1223  05E1  00A3               	movwf	??_xvprintf
  1224  05E2  0823               	movf	??_xvprintf,w
  1225  05E3  00CF               	movwf	xvprintf@c
  1226  05E4  3001               	movlw	1
  1227  05E5  07A0               	addwf	xvprintf@fmt,f
  1228  05E6  3000               	movlw	0
  1229  05E7  3DA1               	addwfc	xvprintf@fmt+1,f
  1230                           
  1231                           ;xprintf.c: 106: if (c == '0') {
  1232  05E8  3030               	movlw	48
  1233  05E9  064F               	xorwf	xvprintf@c,w
  1234  05EA  1D03               	btfss	3,2
  1235  05EB  2DEE               	goto	l1550
  1236                           
  1237                           ;xprintf.c: 107: f = 1; c = *fmt++;
  1238  05EC  3001               	movlw	1
  1239  05ED  2DF3               	goto	L7
  1240  05EE                     l1550:	
  1241                           ;xprintf.c: 108: } else {
  1242                           
  1243                           
  1244                           ;xprintf.c: 109: if (c == '-') {
  1245  05EE  302D               	movlw	45
  1246  05EF  064F               	xorwf	xvprintf@c,w
  1247  05F0  1D03               	btfss	3,2
  1248  05F1  2E02               	goto	l1558
  1249                           
  1250                           ;xprintf.c: 110: f = 2; c = *fmt++;
  1251  05F2  3002               	movlw	2
  1252  05F3                     L7:	
  1253  05F3  00CA               	movwf	xvprintf@f
  1254  05F4  3000               	movlw	0
  1255  05F5  00CB               	movwf	xvprintf@f+1
  1256  05F6  0820               	movf	xvprintf@fmt,w
  1257  05F7  0084               	movwf	4
  1258  05F8  0821               	movf	xvprintf@fmt+1,w
  1259  05F9  0085               	movwf	5
  1260  05FA  0800               	movf	0,w	;code access
  1261  05FB  00A3               	movwf	??_xvprintf
  1262  05FC  0823               	movf	??_xvprintf,w
  1263  05FD  00CF               	movwf	xvprintf@c
  1264  05FE  3001               	movlw	1
  1265  05FF  07A0               	addwf	xvprintf@fmt,f
  1266  0600  3000               	movlw	0
  1267  0601  3DA1               	addwfc	xvprintf@fmt+1,f
  1268  0602                     l1558:	
  1269                           
  1270                           ;xprintf.c: 111: }
  1271                           ;xprintf.c: 112: }
  1272                           ;xprintf.c: 113: for (w = 0; c >= '0' && c <= '9'; c = *fmt++)
  1273  0602  01C2               	clrf	xvprintf@w
  1274  0603  01C3               	clrf	xvprintf@w+1
  1275  0604  2E2C               	goto	l1566
  1276  0605                     l1560:	
  1277                           
  1278                           ;xprintf.c: 114: w = w * 10 + c - '0';
  1279  0605  084F               	movf	xvprintf@c,w
  1280  0606  00A3               	movwf	??_xvprintf
  1281  0607  01A4               	clrf	??_xvprintf+1
  1282  0608  0843               	movf	xvprintf@w+1,w
  1283  0609  00F1               	movwf	___wmul@multiplier+1
  1284  060A  0842               	movf	xvprintf@w,w
  1285  060B  00F0               	movwf	___wmul@multiplier
  1286  060C  300A               	movlw	10
  1287  060D  00F2               	movwf	___wmul@multiplicand
  1288  060E  3000               	movlw	0
  1289  060F  00F3               	movwf	___wmul@multiplicand+1
  1290  0610  3183  23D1  3185   	fcall	___wmul
  1291  0613  0020               	movlb	0	; select bank0
  1292  0614  0823               	movf	??_xvprintf,w
  1293  0615  0770               	addwf	?___wmul,w
  1294  0616  00A5               	movwf	??_xvprintf+2
  1295  0617  0824               	movf	??_xvprintf+1,w
  1296  0618  3D71               	addwfc	?___wmul+1,w
  1297  0619  00A6               	movwf	??_xvprintf+3
  1298  061A  0825               	movf	??_xvprintf+2,w
  1299  061B  3ED0               	addlw	208
  1300  061C  00C2               	movwf	xvprintf@w
  1301  061D  30FF               	movlw	255
  1302  061E  3D26               	addwfc	??_xvprintf+3,w
  1303  061F  00C3               	movwf	xvprintf@w+1
  1304  0620  0820               	movf	xvprintf@fmt,w
  1305  0621  0084               	movwf	4
  1306  0622  0821               	movf	xvprintf@fmt+1,w
  1307  0623  0085               	movwf	5
  1308  0624  0800               	movf	0,w	;code access
  1309  0625  00A3               	movwf	??_xvprintf
  1310  0626  0823               	movf	??_xvprintf,w
  1311  0627  00CF               	movwf	xvprintf@c
  1312  0628  3001               	movlw	1
  1313  0629  07A0               	addwf	xvprintf@fmt,f
  1314  062A  3000               	movlw	0
  1315  062B  3DA1               	addwfc	xvprintf@fmt+1,f
  1316  062C                     l1566:	
  1317  062C  3030               	movlw	48
  1318  062D  024F               	subwf	xvprintf@c,w
  1319  062E  1C03               	skipc
  1320  062F  2E34               	goto	l1570
  1321  0630  303A               	movlw	58
  1322  0631  024F               	subwf	xvprintf@c,w
  1323  0632  1C03               	skipc
  1324  0633  2E05               	goto	l1560
  1325  0634                     l1570:	
  1326                           
  1327                           ;xprintf.c: 115: if (c == 'l' || c == 'L') {
  1328  0634  306C               	movlw	108
  1329  0635  064F               	xorwf	xvprintf@c,w
  1330  0636  1903               	btfsc	3,2
  1331  0637  2E3C               	goto	l147
  1332  0638  304C               	movlw	76
  1333  0639  064F               	xorwf	xvprintf@c,w
  1334  063A  1D03               	btfss	3,2
  1335  063B  2E49               	goto	l1578
  1336  063C                     l147:	
  1337                           
  1338                           ;xprintf.c: 116: f |= 4; c = *fmt++;
  1339  063C  154A               	bsf	xvprintf@f,2
  1340  063D  0820               	movf	xvprintf@fmt,w
  1341  063E  0084               	movwf	4
  1342  063F  0821               	movf	xvprintf@fmt+1,w
  1343  0640  0085               	movwf	5
  1344  0641  0800               	movf	0,w	;code access
  1345  0642  00A3               	movwf	??_xvprintf
  1346  0643  0823               	movf	??_xvprintf,w
  1347  0644  00CF               	movwf	xvprintf@c
  1348  0645  3001               	movlw	1
  1349  0646  07A0               	addwf	xvprintf@fmt,f
  1350  0647  3000               	movlw	0
  1351  0648  3DA1               	addwfc	xvprintf@fmt+1,f
  1352  0649                     l1578:	
  1353                           
  1354                           ;xprintf.c: 117: }
  1355                           ;xprintf.c: 118: if (!c) break;
  1356  0649  084F               	movf	xvprintf@c,w
  1357  064A  1903               	btfsc	3,2
  1358  064B  0008               	return
  1359                           
  1360                           ;xprintf.c: 119: d = c;
  1361  064C  084F               	movf	xvprintf@c,w
  1362  064D  00A3               	movwf	??_xvprintf
  1363  064E  0823               	movf	??_xvprintf,w
  1364  064F  00CE               	movwf	xvprintf@d
  1365                           
  1366                           ;xprintf.c: 120: if (d >= 'a') d -= 0x20;
  1367  0650  3061               	movlw	97
  1368  0651  024E               	subwf	xvprintf@d,w
  1369  0652  1C03               	skipc
  1370  0653  2EBF               	goto	l1620
  1371  0654  3020               	movlw	32
  1372  0655  02CE               	subwf	xvprintf@d,f
  1373                           
  1374                           ;xprintf.c: 121: switch (d) {
  1375  0656  2EBF               	goto	l1620
  1376  0657                     l1586:	
  1377                           ;xprintf.c: 122: case 'S' :
  1378                           
  1379                           
  1380                           ;xprintf.c: 123: p = (*(char* *)__va_arg((*(char* **)arp), (char*)0));
  1381  0657  0822               	movf	xvprintf@arp,w
  1382  0658  0086               	movwf	6
  1383  0659  0187               	clrf	7
  1384  065A  3F40               	moviw [0]fsr1
  1385  065B  0084               	movwf	4
  1386  065C  0185               	clrf	5
  1387  065D  0A81               	incf	1,f
  1388  065E  0800               	movf	0,w
  1389  065F  00A3               	movwf	??_xvprintf
  1390  0660  0823               	movf	??_xvprintf,w
  1391  0661  00BF               	movwf	xvprintf@p
  1392                           
  1393                           ;xprintf.c: 124: for (j = 0; p[j]; j++) ;
  1394  0662  01C4               	clrf	xvprintf@j
  1395  0663  01C5               	clrf	xvprintf@j+1
  1396  0664                     l1592:	
  1397  0664  0844               	movf	xvprintf@j,w
  1398  0665  073F               	addwf	xvprintf@p,w
  1399  0666  00A3               	movwf	??_xvprintf
  1400  0667  0823               	movf	??_xvprintf,w
  1401  0668  0086               	movwf	6
  1402  0669  0187               	clrf	7
  1403  066A  0801               	movf	1,w
  1404  066B  1903               	btfsc	3,2
  1405  066C  2E76               	goto	l1596
  1406  066D  3001               	movlw	1
  1407  066E  07C4               	addwf	xvprintf@j,f
  1408  066F  3000               	movlw	0
  1409  0670  3DC5               	addwfc	xvprintf@j+1,f
  1410  0671  2E64               	goto	l1592
  1411  0672                     l1594:	
  1412                           ;xprintf.c: 125: while (!(f & 2) && j++ < w) xputc(' ');
  1413                           
  1414  0672  3020               	movlw	32
  1415  0673  3184  2415  3185   	fcall	_xputc
  1416  0676                     l1596:	
  1417  0676  0020               	movlb	0	; select bank0
  1418  0677  18CA               	btfsc	xvprintf@f,1
  1419  0678  2E88               	goto	l1600
  1420  0679  0845               	movf	xvprintf@j+1,w
  1421  067A  00A4               	movwf	??_xvprintf+1
  1422  067B  0844               	movf	xvprintf@j,w
  1423  067C  00A3               	movwf	??_xvprintf
  1424  067D  0AC4               	incf	xvprintf@j,f
  1425  067E  1903               	skipnz
  1426  067F  0AC5               	incf	xvprintf@j+1,f
  1427  0680  0843               	movf	xvprintf@w+1,w
  1428  0681  0224               	subwf	??_xvprintf+1,w
  1429  0682  1D03               	skipz
  1430  0683  2E86               	goto	u1275
  1431  0684  0842               	movf	xvprintf@w,w
  1432  0685  0223               	subwf	??_xvprintf,w
  1433  0686                     u1275:	
  1434  0686  1C03               	skipc
  1435  0687  2E72               	goto	l1594
  1436  0688                     l1600:	
  1437                           
  1438                           ;xprintf.c: 126: xputs(p);
  1439  0688  083F               	movf	xvprintf@p,w
  1440  0689  3183  237C  3185   	fcall	_xputs
  1441  068C                     l1604:	
  1442                           ;xprintf.c: 127: while (j++ < w) xputc(' ');
  1443                           
  1444  068C  0020               	movlb	0	; select bank0
  1445  068D  0845               	movf	xvprintf@j+1,w
  1446  068E  00A4               	movwf	??_xvprintf+1
  1447  068F  0844               	movf	xvprintf@j,w
  1448  0690  00A3               	movwf	??_xvprintf
  1449  0691  0AC4               	incf	xvprintf@j,f
  1450  0692  1903               	skipnz
  1451  0693  0AC5               	incf	xvprintf@j+1,f
  1452  0694  0843               	movf	xvprintf@w+1,w
  1453  0695  0224               	subwf	??_xvprintf+1,w
  1454  0696  1D03               	skipz
  1455  0697  2E9A               	goto	u1285
  1456  0698  0842               	movf	xvprintf@w,w
  1457  0699  0223               	subwf	??_xvprintf,w
  1458  069A                     u1285:	
  1459  069A  1803               	btfsc	3,0
  1460  069B  2DC0               	goto	l132
  1461  069C  3020               	movlw	32
  1462  069D  3184  2415  3185   	fcall	_xputc
  1463  06A0  2E8C               	goto	l1604
  1464  06A1                     l1606:	
  1465                           ;xprintf.c: 129: case 'C' :
  1466                           
  1467                           ;xprintf.c: 128: continue;
  1468                           
  1469                           
  1470                           ;xprintf.c: 130: xputc((char)(*(int *)__va_arg((*(int **)arp), (int)0))); continue;
  1471  06A1  0822               	movf	xvprintf@arp,w
  1472  06A2  0086               	movwf	6
  1473  06A3  0187               	clrf	7
  1474  06A4  0801               	movf	1,w
  1475  06A5  0084               	movwf	4
  1476  06A6  0185               	clrf	5
  1477  06A7  3002               	movlw	2
  1478  06A8  0781               	addwf	1,f
  1479  06A9  0800               	movf	0,w
  1480  06AA  3184  2415  3185   	fcall	_xputc
  1481  06AD  2DC0               	goto	l132
  1482  06AE                     l1608:	
  1483                           ;xprintf.c: 131: case 'B' :
  1484                           
  1485                           
  1486                           ;xprintf.c: 132: r = 2; break;
  1487  06AE  3002               	movlw	2
  1488  06AF  0020               	movlb	0	; select bank0
  1489  06B0  2EB6               	goto	L4
  1490  06B1                     l1610:	
  1491                           ;xprintf.c: 133: case 'O' :
  1492                           
  1493                           
  1494                           ;xprintf.c: 134: r = 8; break;
  1495  06B1  3008               	movlw	8
  1496  06B2  2EB6               	goto	L4
  1497  06B3                     l1612:	
  1498                           ;xprintf.c: 135: case 'D' :
  1499                           
  1500                           
  1501                           ;xprintf.c: 136: case 'U' :
  1502                           ;xprintf.c: 137: r = 10; break;
  1503  06B3  300A               	movlw	10
  1504  06B4  2EB6               	goto	L4
  1505  06B5                     l1614:	
  1506                           ;xprintf.c: 138: case 'X' :
  1507                           
  1508                           
  1509                           ;xprintf.c: 139: r = 16; break;
  1510  06B5  3010               	movlw	16
  1511  06B6                     L4:	
  1512  06B6  00C0               	movwf	xvprintf@r
  1513  06B7  3000               	movlw	0
  1514  06B8  00C1               	movwf	xvprintf@r+1
  1515  06B9  2ED7               	goto	l165
  1516  06BA                     l1616:	
  1517                           ;xprintf.c: 140: default:
  1518                           
  1519                           
  1520                           ;xprintf.c: 141: xputc(c); continue;
  1521  06BA  084F               	movf	xvprintf@c,w
  1522  06BB  3184  2415  3185   	fcall	_xputc
  1523  06BE  2DC0               	goto	l132
  1524  06BF                     l1620:	
  1525                           ;xprintf.c: 142: }
  1526                           
  1527  06BF  0020               	movlb	0	; select bank0
  1528  06C0  084E               	movf	xvprintf@d,w
  1529                           
  1530                           ; Switch size 1, requested type "space"
  1531                           ; Number of cases is 7, Range of values is 66 to 88
  1532                           ; switch strategies available:
  1533                           ; Name         Instructions Cycles
  1534                           ; simple_byte           22    12 (average)
  1535                           ; direct_byte           55     9 (fixed)
  1536                           ; jumptable            263     9 (fixed)
  1537                           ;	Chosen strategy is simple_byte
  1538  06C1  3A42               	xorlw	66	; case 66
  1539  06C2  1903               	skipnz
  1540  06C3  2EAE               	goto	l1608
  1541  06C4  3A01               	xorlw	1	; case 67
  1542  06C5  1903               	skipnz
  1543  06C6  2EA1               	goto	l1606
  1544  06C7  3A07               	xorlw	7	; case 68
  1545  06C8  1903               	skipnz
  1546  06C9  2EB3               	goto	l1612
  1547  06CA  3A0B               	xorlw	11	; case 79
  1548  06CB  1903               	skipnz
  1549  06CC  2EB1               	goto	l1610
  1550  06CD  3A1C               	xorlw	28	; case 83
  1551  06CE  1903               	skipnz
  1552  06CF  2E57               	goto	l1586
  1553  06D0  3A06               	xorlw	6	; case 85
  1554  06D1  1903               	skipnz
  1555  06D2  2EB3               	goto	l1612
  1556  06D3  3A0D               	xorlw	13	; case 88
  1557  06D4  1903               	skipnz
  1558  06D5  2EB5               	goto	l1614
  1559  06D6  2EBA               	goto	l1616
  1560  06D7                     l165:	
  1561                           
  1562                           ;xprintf.c: 145: v = (f & 4) ? (*(long *)__va_arg((*(long **)arp), (long)0)) : ((d == 'D
      +                          ') ? (long)(*(int *)__va_arg((*(int **)arp), (int)0)) : (long)(*(unsigned int *)__va_arg
      +                          ((*(unsigned int **)arp), (unsigned int)0)));
  1563  06D7  0020               	movlb	0	; select bank0
  1564  06D8  194A               	btfsc	xvprintf@f,2
  1565  06D9  2F0F               	goto	l1630
  1566  06DA  3044               	movlw	68
  1567  06DB  064E               	xorwf	xvprintf@d,w
  1568  06DC  1903               	btfsc	3,2
  1569  06DD  2EF1               	goto	l1626
  1570  06DE  0822               	movf	xvprintf@arp,w
  1571  06DF  0086               	movwf	6
  1572  06E0  0187               	clrf	7
  1573  06E1  0801               	movf	1,w
  1574  06E2  0084               	movwf	4
  1575  06E3  0185               	clrf	5
  1576  06E4  3002               	movlw	2
  1577  06E5  0781               	addwf	1,f
  1578  06E6  3F00               	moviw [0]fsr0
  1579  06E7  00A3               	movwf	??_xvprintf
  1580  06E8  3F01               	moviw [1]fsr0
  1581  06E9  00A4               	movwf	??_xvprintf+1
  1582  06EA  0823               	movf	??_xvprintf,w
  1583  06EB  00B7               	movwf	_xvprintf$186
  1584  06EC  0824               	movf	??_xvprintf+1,w
  1585  06ED  00B8               	movwf	_xvprintf$186+1
  1586  06EE  01B9               	clrf	_xvprintf$186+2
  1587  06EF  01BA               	clrf	_xvprintf$186+3
  1588  06F0  2F06               	goto	l1628
  1589  06F1                     l1626:	
  1590  06F1  0822               	movf	xvprintf@arp,w
  1591  06F2  0086               	movwf	6
  1592  06F3  0187               	clrf	7
  1593  06F4  0801               	movf	1,w
  1594  06F5  0084               	movwf	4
  1595  06F6  0185               	clrf	5
  1596  06F7  3002               	movlw	2
  1597  06F8  0781               	addwf	1,f
  1598  06F9  3F00               	moviw [0]fsr0
  1599  06FA  00A3               	movwf	??_xvprintf
  1600  06FB  3F01               	moviw [1]fsr0
  1601  06FC  00A4               	movwf	??_xvprintf+1
  1602  06FD  0823               	movf	??_xvprintf,w
  1603  06FE  00B7               	movwf	_xvprintf$186
  1604  06FF  0824               	movf	??_xvprintf+1,w
  1605  0700  00B8               	movwf	_xvprintf$186+1
  1606  0701  0D89               	rlf	9,f
  1607  0702  3B89               	subwfb	9,f
  1608  0703  0989               	comf	9,f
  1609  0704  00B9               	movwf	_xvprintf$186+2
  1610  0705  00BA               	movwf	_xvprintf$186+3
  1611  0706                     l1628:	
  1612  0706  083A               	movf	_xvprintf$186+3,w
  1613  0707  00C9               	movwf	xvprintf@v+3
  1614  0708  0839               	movf	_xvprintf$186+2,w
  1615  0709  00C8               	movwf	xvprintf@v+2
  1616  070A  0838               	movf	_xvprintf$186+1,w
  1617  070B  00C7               	movwf	xvprintf@v+1
  1618  070C  0837               	movf	_xvprintf$186,w
  1619  070D  00C6               	movwf	xvprintf@v
  1620  070E  2F1F               	goto	l1632
  1621  070F                     l1630:	
  1622  070F  0822               	movf	xvprintf@arp,w
  1623  0710  0086               	movwf	6
  1624  0711  0187               	clrf	7
  1625  0712  0801               	movf	1,w
  1626  0713  0084               	movwf	4
  1627  0714  0185               	clrf	5
  1628  0715  3004               	movlw	4
  1629  0716  0781               	addwf	1,f
  1630  0717  3F00               	moviw [0]fsr0
  1631  0718  00C6               	movwf	xvprintf@v
  1632  0719  3F01               	moviw [1]fsr0
  1633  071A  00C7               	movwf	xvprintf@v+1
  1634  071B  3F02               	moviw [2]fsr0
  1635  071C  00C8               	movwf	xvprintf@v+2
  1636  071D  3F03               	moviw [3]fsr0
  1637  071E  00C9               	movwf	xvprintf@v+3
  1638  071F                     l1632:	
  1639                           
  1640                           ;xprintf.c: 146: if (d == 'D' && (v & 0x80000000)) {
  1641  071F  3044               	movlw	68
  1642  0720  064E               	xorwf	xvprintf@d,w
  1643  0721  1903               	btfsc	3,2
  1644  0722  1FC9               	btfss	xvprintf@v+3,7
  1645  0723  2F30               	goto	l1638
  1646                           
  1647                           ;xprintf.c: 147: v = 0 - v;
  1648  0724  09C6               	comf	xvprintf@v,f
  1649  0725  09C7               	comf	xvprintf@v+1,f
  1650  0726  09C8               	comf	xvprintf@v+2,f
  1651  0727  09C9               	comf	xvprintf@v+3,f
  1652  0728  0AC6               	incf	xvprintf@v,f
  1653  0729  1903               	skipnz
  1654  072A  0AC7               	incf	xvprintf@v+1,f
  1655  072B  1903               	skipnz
  1656  072C  0AC8               	incf	xvprintf@v+2,f
  1657  072D  1903               	skipnz
  1658  072E  0AC9               	incf	xvprintf@v+3,f
  1659                           
  1660                           ;xprintf.c: 148: f |= 8;
  1661  072F  15CA               	bsf	xvprintf@f,3
  1662  0730                     l1638:	
  1663                           
  1664                           ;xprintf.c: 149: }
  1665                           ;xprintf.c: 150: i = 0;
  1666  0730  01CC               	clrf	xvprintf@i
  1667  0731  01CD               	clrf	xvprintf@i+1
  1668  0732                     l1640:	
  1669                           ;xprintf.c: 151: do {
  1670                           
  1671                           
  1672                           ;xprintf.c: 152: d = (char)(v % r); v /= r;
  1673  0732  0840               	movf	xvprintf@r,w
  1674  0733  00F0               	movwf	___llmod@divisor
  1675  0734  0841               	movf	xvprintf@r+1,w
  1676  0735  00F1               	movwf	___llmod@divisor+1
  1677  0736  01F2               	clrf	___llmod@divisor+2
  1678  0737  01F3               	clrf	___llmod@divisor+3
  1679  0738  0849               	movf	xvprintf@v+3,w
  1680  0739  00F7               	movwf	___llmod@dividend+3
  1681  073A  0848               	movf	xvprintf@v+2,w
  1682  073B  00F6               	movwf	___llmod@dividend+2
  1683  073C  0847               	movf	xvprintf@v+1,w
  1684  073D  00F5               	movwf	___llmod@dividend+1
  1685  073E  0846               	movf	xvprintf@v,w
  1686  073F  00F4               	movwf	___llmod@dividend
  1687  0740  3184  247C  3185   	fcall	___llmod
  1688  0743  0870               	movf	?___llmod,w
  1689  0744  0020               	movlb	0	; select bank0
  1690  0745  00A3               	movwf	??_xvprintf
  1691  0746  0823               	movf	??_xvprintf,w
  1692  0747  00CE               	movwf	xvprintf@d
  1693  0748  0840               	movf	xvprintf@r,w
  1694  0749  00F0               	movwf	___lldiv@divisor
  1695  074A  0841               	movf	xvprintf@r+1,w
  1696  074B  00F1               	movwf	___lldiv@divisor+1
  1697  074C  01F2               	clrf	___lldiv@divisor+2
  1698  074D  01F3               	clrf	___lldiv@divisor+3
  1699  074E  0849               	movf	xvprintf@v+3,w
  1700  074F  00F7               	movwf	___lldiv@dividend+3
  1701  0750  0848               	movf	xvprintf@v+2,w
  1702  0751  00F6               	movwf	___lldiv@dividend+2
  1703  0752  0847               	movf	xvprintf@v+1,w
  1704  0753  00F5               	movwf	___lldiv@dividend+1
  1705  0754  0846               	movf	xvprintf@v,w
  1706  0755  00F4               	movwf	___lldiv@dividend
  1707  0756  3185  2505  3185   	fcall	___lldiv
  1708  0759  0873               	movf	?___lldiv+3,w
  1709  075A  0020               	movlb	0	; select bank0
  1710  075B  00C9               	movwf	xvprintf@v+3
  1711  075C  0872               	movf	?___lldiv+2,w
  1712  075D  00C8               	movwf	xvprintf@v+2
  1713  075E  0871               	movf	?___lldiv+1,w
  1714  075F  00C7               	movwf	xvprintf@v+1
  1715  0760  0870               	movf	?___lldiv,w
  1716  0761  00C6               	movwf	xvprintf@v
  1717                           
  1718                           ;xprintf.c: 153: if (d > 9) d += (c == 'x') ? 0x27 : 0x07;
  1719  0762  300A               	movlw	10
  1720  0763  024E               	subwf	xvprintf@d,w
  1721  0764  1C03               	skipc
  1722  0765  2F74               	goto	l1654
  1723  0766  3078               	movlw	120
  1724  0767  064F               	xorwf	xvprintf@c,w
  1725  0768  1903               	btfsc	3,2
  1726  0769  2F6C               	goto	l1650
  1727  076A  3007               	movlw	7
  1728  076B  2F6D               	goto	L5
  1729  076C                     l1650:	
  1730  076C  3027               	movlw	39
  1731  076D                     L5:	
  1732  076D  00BB               	movwf	_xvprintf$187
  1733  076E  3000               	movlw	0
  1734  076F  00BC               	movwf	_xvprintf$187+1
  1735  0770  083B               	movf	_xvprintf$187,w
  1736  0771  00A3               	movwf	??_xvprintf
  1737  0772  0823               	movf	??_xvprintf,w
  1738  0773  07CE               	addwf	xvprintf@d,f
  1739  0774                     l1654:	
  1740                           
  1741                           ;xprintf.c: 154: s[i++] = d + '0';
  1742  0774  084E               	movf	xvprintf@d,w
  1743  0775  3E30               	addlw	48
  1744  0776  00A3               	movwf	??_xvprintf
  1745  0777  084C               	movf	xvprintf@i,w
  1746  0778  3E27               	addlw	(low (xvprintf@s| 0))& (0+255)
  1747  0779  0086               	movwf	6
  1748  077A  0187               	clrf	7
  1749  077B  0823               	movf	??_xvprintf,w
  1750  077C  0081               	movwf	1
  1751  077D  3001               	movlw	1
  1752  077E  07CC               	addwf	xvprintf@i,f
  1753  077F  3000               	movlw	0
  1754  0780  3DCD               	addwfc	xvprintf@i+1,f
  1755                           
  1756                           ;xprintf.c: 155: } while (v && i < sizeof(s));
  1757  0781  0849               	movf	xvprintf@v+3,w
  1758  0782  0448               	iorwf	xvprintf@v+2,w
  1759  0783  0447               	iorwf	xvprintf@v+1,w
  1760  0784  0446               	iorwf	xvprintf@v,w
  1761  0785  1903               	skipnz
  1762  0786  2F8E               	goto	l188
  1763  0787  3000               	movlw	0
  1764  0788  024D               	subwf	xvprintf@i+1,w
  1765  0789  3010               	movlw	16
  1766  078A  1903               	skipnz
  1767  078B  024C               	subwf	xvprintf@i,w
  1768  078C  1C03               	skipc
  1769  078D  2F32               	goto	l1640
  1770  078E                     l188:	
  1771                           
  1772                           ;xprintf.c: 156: if (f & 8) s[i++] = '-';
  1773  078E  1DCA               	btfss	xvprintf@f,3
  1774  078F  2F9C               	goto	l1666
  1775  0790  302D               	movlw	45
  1776  0791  00A3               	movwf	??_xvprintf
  1777  0792  084C               	movf	xvprintf@i,w
  1778  0793  3E27               	addlw	(low (xvprintf@s| 0))& (0+255)
  1779  0794  0086               	movwf	6
  1780  0795  0187               	clrf	7
  1781  0796  0823               	movf	??_xvprintf,w
  1782  0797  0081               	movwf	1
  1783  0798  3001               	movlw	1
  1784  0799  07CC               	addwf	xvprintf@i,f
  1785  079A  3000               	movlw	0
  1786  079B  3DCD               	addwfc	xvprintf@i+1,f
  1787  079C                     l1666:	
  1788                           
  1789                           ;xprintf.c: 157: j = i; d = (f & 1) ? '0' : ' ';
  1790  079C  084D               	movf	xvprintf@i+1,w
  1791  079D  00C5               	movwf	xvprintf@j+1
  1792  079E  084C               	movf	xvprintf@i,w
  1793  079F  00C4               	movwf	xvprintf@j
  1794  07A0  184A               	btfsc	xvprintf@f,0
  1795  07A1  2FA4               	goto	l1672
  1796  07A2  3020               	movlw	32
  1797  07A3  2FA5               	goto	L6
  1798  07A4                     l1672:	
  1799  07A4  3030               	movlw	48
  1800  07A5                     L6:	
  1801  07A5  00BD               	movwf	_xvprintf$188
  1802  07A6  3000               	movlw	0
  1803  07A7  00BE               	movwf	_xvprintf$188+1
  1804  07A8  083D               	movf	_xvprintf$188,w
  1805  07A9  00A3               	movwf	??_xvprintf
  1806  07AA  0823               	movf	??_xvprintf,w
  1807  07AB  00CE               	movwf	xvprintf@d
  1808                           
  1809                           ;xprintf.c: 158: while (!(f & 2) && j++ < w) xputc(d);
  1810  07AC  2FB1               	goto	l1676
  1811  07AD                     l1674:	
  1812  07AD  084E               	movf	xvprintf@d,w
  1813  07AE  3184  2415  3185   	fcall	_xputc
  1814  07B1                     l1676:	
  1815  07B1  0020               	movlb	0	; select bank0
  1816  07B2  18CA               	btfsc	xvprintf@f,1
  1817  07B3  2FC3               	goto	l1680
  1818  07B4  0845               	movf	xvprintf@j+1,w
  1819  07B5  00A4               	movwf	??_xvprintf+1
  1820  07B6  0844               	movf	xvprintf@j,w
  1821  07B7  00A3               	movwf	??_xvprintf
  1822  07B8  0AC4               	incf	xvprintf@j,f
  1823  07B9  1903               	skipnz
  1824  07BA  0AC5               	incf	xvprintf@j+1,f
  1825  07BB  0843               	movf	xvprintf@w+1,w
  1826  07BC  0224               	subwf	??_xvprintf+1,w
  1827  07BD  1D03               	skipz
  1828  07BE  2FC1               	goto	u1405
  1829  07BF  0842               	movf	xvprintf@w,w
  1830  07C0  0223               	subwf	??_xvprintf,w
  1831  07C1                     u1405:	
  1832  07C1  1C03               	skipc
  1833  07C2  2FAD               	goto	l1674
  1834  07C3                     l1680:	
  1835                           ;xprintf.c: 159: do xputc(s[--i]); while(i);
  1836                           
  1837  07C3  3001               	movlw	1
  1838  07C4  02CC               	subwf	xvprintf@i,f
  1839  07C5  3000               	movlw	0
  1840  07C6  3BCD               	subwfb	xvprintf@i+1,f
  1841  07C7  084C               	movf	xvprintf@i,w
  1842  07C8  3E27               	addlw	(low (xvprintf@s| 0))& (0+255)
  1843  07C9  0086               	movwf	6
  1844  07CA  0187               	clrf	7
  1845  07CB  0801               	movf	1,w
  1846  07CC  3184  2415  3185   	fcall	_xputc
  1847  07CF  0020               	movlb	0	; select bank0
  1848  07D0  084C               	movf	xvprintf@i,w
  1849  07D1  044D               	iorwf	xvprintf@i+1,w
  1850  07D2  1903               	btfsc	3,2
  1851  07D3  2FD9               	goto	l1686
  1852  07D4  2FC3               	goto	l1680
  1853  07D5                     l1684:	
  1854                           ;xprintf.c: 160: while (j++ < w) xputc(' ');
  1855                           
  1856  07D5  3020               	movlw	32
  1857  07D6  3184  2415  3185   	fcall	_xputc
  1858  07D9                     l1686:	
  1859  07D9  0020               	movlb	0	; select bank0
  1860  07DA  0845               	movf	xvprintf@j+1,w
  1861  07DB  00A4               	movwf	??_xvprintf+1
  1862  07DC  0844               	movf	xvprintf@j,w
  1863  07DD  00A3               	movwf	??_xvprintf
  1864  07DE  0AC4               	incf	xvprintf@j,f
  1865  07DF  1903               	skipnz
  1866  07E0  0AC5               	incf	xvprintf@j+1,f
  1867  07E1  0843               	movf	xvprintf@w+1,w
  1868  07E2  0224               	subwf	??_xvprintf+1,w
  1869  07E3  1D03               	skipz
  1870  07E4  2FE7               	goto	u1425
  1871  07E5  0842               	movf	xvprintf@w,w
  1872  07E6  0223               	subwf	??_xvprintf,w
  1873  07E7                     u1425:	
  1874  07E7  1803               	btfsc	3,0
  1875  07E8  2DC0               	goto	l132
  1876  07E9  2FD5               	goto	l1684
  1877  07EA                     __end_of_xvprintf:	
  1878                           ;xprintf.c: 161: }
  1879                           
  1880                           
  1881                           	psect	text3
  1882  037C                     __ptext3:	
  1883 ;; *************** function _xputs *****************
  1884 ;; Defined at:
  1885 ;;		line 44 in file "xprintf.c"
  1886 ;; Parameters:    Size  Location     Type
  1887 ;;  str             1    wreg     PTR const unsigned char 
  1888 ;;		 -> ?_xfprintf(1), ?_xsprintf(1), ?_xprintf(1), 
  1889 ;; Auto vars:     Size  Location     Type
  1890 ;;  str             1    7[COMMON] PTR const unsigned char 
  1891 ;;		 -> ?_xfprintf(1), ?_xsprintf(1), ?_xprintf(1), 
  1892 ;; Return value:  Size  Location     Type
  1893 ;;                  1    wreg      void 
  1894 ;; Registers used:
  1895 ;;		wreg, fsr1l, fsr1h, status,2, status,0, pclath, cstack
  1896 ;; Tracked objects:
  1897 ;;		On entry : 0/0
  1898 ;;		On exit  : 0/0
  1899 ;;		Unchanged: 0/0
  1900 ;; Data sizes:     COMMON   BANK0   BANK1   BANK2   BANK3   BANK4
  1901 ;;      Params:         0       0       0       0       0       0
  1902 ;;      Locals:         1       0       0       0       0       0
  1903 ;;      Temps:          1       0       0       0       0       0
  1904 ;;      Totals:         2       0       0       0       0       0
  1905 ;;Total ram usage:        2 bytes
  1906 ;; Hardware stack levels used:    1
  1907 ;; Hardware stack levels required when called:    3
  1908 ;; This function calls:
  1909 ;;		_xputc
  1910 ;; This function is called by:
  1911 ;;		_xvprintf
  1912 ;; This function uses a non-reentrant model
  1913 ;;
  1914                           
  1915                           
  1916                           ;psect for function _xputs
  1917  037C                     _xputs:	
  1918                           
  1919                           ;incstack = 0
  1920                           ; Regs used in _xputs: [wreg+fsr1l+fsr1h+status,2+status,0+pclath+cstack]
  1921                           ;xputs@str stored from wreg
  1922  037C  00F7               	movwf	xputs@str
  1923  037D                     l1454:	
  1924                           ;xprintf.c: 48: while (*str)
  1925                           
  1926  037D  0877               	movf	xputs@str,w
  1927  037E  0086               	movwf	6
  1928  037F  0187               	clrf	7
  1929  0380  0801               	movf	1,w
  1930  0381  1903               	btfsc	3,2
  1931  0382  0008               	return
  1932                           
  1933                           ;xprintf.c: 49: xputc(*str++);
  1934  0383  0877               	movf	xputs@str,w
  1935  0384  0086               	movwf	6
  1936  0385  0187               	clrf	7
  1937  0386  0801               	movf	1,w
  1938  0387  3184  2415  3183   	fcall	_xputc
  1939  038A  3001               	movlw	1
  1940  038B  00F6               	movwf	??_xputs
  1941  038C  0876               	movf	??_xputs,w
  1942  038D  07F7               	addwf	xputs@str,f
  1943  038E  2B7D               	goto	l1454
  1944  038F                     __end_of_xputs:	
  1945                           
  1946                           	psect	text4
  1947  0415                     __ptext4:	
  1948 ;; *************** function _xputc *****************
  1949 ;; Defined at:
  1950 ;;		line 26 in file "xprintf.c"
  1951 ;; Parameters:    Size  Location     Type
  1952 ;;  c               1    wreg     unsigned char 
  1953 ;; Auto vars:     Size  Location     Type
  1954 ;;  c               1    5[COMMON] unsigned char 
  1955 ;; Return value:  Size  Location     Type
  1956 ;;                  1    wreg      void 
  1957 ;; Registers used:
  1958 ;;		wreg, fsr1l, fsr1h, status,2, status,0, pclath, cstack
  1959 ;; Tracked objects:
  1960 ;;		On entry : 0/0
  1961 ;;		On exit  : 0/0
  1962 ;;		Unchanged: 0/0
  1963 ;; Data sizes:     COMMON   BANK0   BANK1   BANK2   BANK3   BANK4
  1964 ;;      Params:         0       0       0       0       0       0
  1965 ;;      Locals:         1       0       0       0       0       0
  1966 ;;      Temps:          1       0       0       0       0       0
  1967 ;;      Totals:         2       0       0       0       0       0
  1968 ;;Total ram usage:        2 bytes
  1969 ;; Hardware stack levels used:    1
  1970 ;; Hardware stack levels required when called:    2
  1971 ;; This function calls:
  1972 ;;		Absolute function
  1973 ;;		_LCD_Put
  1974 ;; This function is called by:
  1975 ;;		_xputs
  1976 ;;		_xvprintf
  1977 ;;		_xfputs
  1978 ;;		_put_dump
  1979 ;;		_xgets
  1980 ;; This function uses a non-reentrant model
  1981 ;;
  1982                           
  1983                           
  1984                           ;psect for function _xputc
  1985  0415                     _xputc:	
  1986                           
  1987                           ;incstack = 0
  1988                           ; Regs used in _xputc: [wreg+fsr1l+fsr1h+status,2+status,0+pclath+cstack]
  1989                           ;xputc@c stored from wreg
  1990  0415  00F5               	movwf	xputc@c
  1991  0416  300A               	movlw	10
  1992  0417  0675               	xorwf	xputc@c,w
  1993  0418  1D03               	btfss	3,2
  1994  0419  2C24               	goto	l1436
  1995  041A  301E               	movlw	(low (STR_2| (0+32768)))& (0+255)
  1996  041B  00F4               	movwf	??_xputc
  1997  041C  0874               	movf	??_xputc,w
  1998  041D  00F3               	movwf	LCD_Put@word
  1999  041E  0020               	movlb	0	; select bank0
  2000  041F  0868               	movf	_xfunc_out+1,w
  2001  0420  008A               	movwf	10
  2002  0421  0867               	movf	_xfunc_out,w
  2003  0422  000A               	callw
  2004  0423  3184               	pagesel	$
  2005  0424                     l1436:	
  2006                           
  2007                           ;xprintf.c: 30: if (outptr) {
  2008  0424  0020               	movlb	0	; select bank0
  2009  0425  0869               	movf	_outptr,w
  2010  0426  1903               	btfsc	3,2
  2011  0427  2C34               	goto	l1444
  2012                           
  2013                           ;xprintf.c: 31: *outptr++ = (unsigned char)c;
  2014  0428  0875               	movf	xputc@c,w
  2015  0429  00F4               	movwf	??_xputc
  2016  042A  0869               	movf	_outptr,w
  2017  042B  0086               	movwf	6
  2018  042C  0187               	clrf	7
  2019  042D  0874               	movf	??_xputc,w
  2020  042E  0081               	movwf	1
  2021  042F  3001               	movlw	1
  2022  0430  00F4               	movwf	??_xputc
  2023  0431  0874               	movf	??_xputc,w
  2024  0432  07E9               	addwf	_outptr,f
  2025                           
  2026                           ;xprintf.c: 32: return;
  2027  0433  0008               	return
  2028  0434                     l1444:	
  2029                           
  2030                           ;xprintf.c: 33: }
  2031                           ;xprintf.c: 35: if (xfunc_out) xfunc_out((unsigned char)c);
  2032  0434  0867               	movf	_xfunc_out,w
  2033  0435  0468               	iorwf	_xfunc_out+1,w
  2034  0436  1903               	btfsc	3,2
  2035  0437  0008               	return
  2036  0438  0875               	movf	xputc@c,w
  2037  0439  00F4               	movwf	??_xputc
  2038  043A  0874               	movf	??_xputc,w
  2039  043B  00F3               	movwf	LCD_Put@word
  2040  043C  0868               	movf	_xfunc_out+1,w
  2041  043D  008A               	movwf	10
  2042  043E  0867               	movf	_xfunc_out,w
  2043  043F  000A               	callw
  2044  0440  3184               	pagesel	$
  2045  0441  0008               	return
  2046  0442                     __end_of_xputc:	
  2047                           
  2048                           	psect	text5
  2049  0357                     __ptext5:	
  2050 ;; *************** function _LCD_Put *****************
  2051 ;; Defined at:
  2052 ;;		line 54 in file "LCD.c"
  2053 ;; Parameters:    Size  Location     Type
  2054 ;;  word            1    3[COMMON] char 
  2055 ;; Auto vars:     Size  Location     Type
  2056 ;;		None
  2057 ;; Return value:  Size  Location     Type
  2058 ;;                  1    wreg      void 
  2059 ;; Registers used:
  2060 ;;		wreg, status,2, status,0, pclath, cstack
  2061 ;; Tracked objects:
  2062 ;;		On entry : 0/0
  2063 ;;		On exit  : 0/0
  2064 ;;		Unchanged: 0/0
  2065 ;; Data sizes:     COMMON   BANK0   BANK1   BANK2   BANK3   BANK4
  2066 ;;      Params:         1       0       0       0       0       0
  2067 ;;      Locals:         0       0       0       0       0       0
  2068 ;;      Temps:          0       0       0       0       0       0
  2069 ;;      Totals:         1       0       0       0       0       0
  2070 ;;Total ram usage:        1 bytes
  2071 ;; Hardware stack levels used:    1
  2072 ;; Hardware stack levels required when called:    1
  2073 ;; This function calls:
  2074 ;;		_LCD_WriteData
  2075 ;; This function is called by:
  2076 ;;		_main
  2077 ;;		_xputc
  2078 ;; This function uses a non-reentrant model
  2079 ;;
  2080                           
  2081                           
  2082                           ;psect for function _LCD_Put
  2083  0357                     _LCD_Put:	
  2084                           
  2085                           ;LCD.c: 56: RA4 = 1;
  2086                           
  2087                           ;incstack = 0
  2088                           ; Regs used in _LCD_Put: [wreg+status,2+status,0+pclath+cstack]
  2089  0357  0020               	movlb	0	; select bank0
  2090  0358  160C               	bsf	12,4	;volatile
  2091                           
  2092                           ;LCD.c: 57: LCD_WriteData(word);
  2093  0359  0873               	movf	LCD_Put@word,w
  2094  035A  3184  2442         	fcall	_LCD_WriteData
  2095  035C  0008               	return
  2096  035D                     __end_of_LCD_Put:	
  2097                           
  2098                           	psect	text6
  2099  03D1                     __ptext6:	
  2100 ;; *************** function ___wmul *****************
  2101 ;; Defined at:
  2102 ;;		line 15 in file "/opt/microchip/xc8/v1.41/sources/common/Umul16.c"
  2103 ;; Parameters:    Size  Location     Type
  2104 ;;  multiplier      2    0[COMMON] unsigned int 
  2105 ;;  multiplicand    2    2[COMMON] unsigned int 
  2106 ;; Auto vars:     Size  Location     Type
  2107 ;;  product         2    4[COMMON] unsigned int 
  2108 ;; Return value:  Size  Location     Type
  2109 ;;                  2    0[COMMON] unsigned int 
  2110 ;; Registers used:
  2111 ;;		wreg, status,2, status,0
  2112 ;; Tracked objects:
  2113 ;;		On entry : 0/0
  2114 ;;		On exit  : 0/0
  2115 ;;		Unchanged: 0/0
  2116 ;; Data sizes:     COMMON   BANK0   BANK1   BANK2   BANK3   BANK4
  2117 ;;      Params:         4       0       0       0       0       0
  2118 ;;      Locals:         2       0       0       0       0       0
  2119 ;;      Temps:          0       0       0       0       0       0
  2120 ;;      Totals:         6       0       0       0       0       0
  2121 ;;Total ram usage:        6 bytes
  2122 ;; Hardware stack levels used:    1
  2123 ;; This function calls:
  2124 ;;		Nothing
  2125 ;; This function is called by:
  2126 ;;		_xvprintf
  2127 ;; This function uses a non-reentrant model
  2128 ;;
  2129                           
  2130                           
  2131                           ;psect for function ___wmul
  2132  03D1                     ___wmul:	
  2133                           
  2134                           ;incstack = 0
  2135                           ; Regs used in ___wmul: [wreg+status,2+status,0]
  2136  03D1  01F4               	clrf	___wmul@product
  2137  03D2  01F5               	clrf	___wmul@product+1
  2138  03D3                     l1458:	
  2139  03D3  1C70               	btfss	___wmul@multiplier,0
  2140  03D4  2BD9               	goto	l410
  2141  03D5  0872               	movf	___wmul@multiplicand,w
  2142  03D6  07F4               	addwf	___wmul@product,f
  2143  03D7  0873               	movf	___wmul@multiplicand+1,w
  2144  03D8  3DF5               	addwfc	___wmul@product+1,f
  2145  03D9                     l410:	
  2146  03D9  3001               	movlw	1
  2147  03DA                     u985:	
  2148  03DA  35F2               	lslf	___wmul@multiplicand,f
  2149  03DB  0DF3               	rlf	___wmul@multiplicand+1,f
  2150  03DC  0B89               	decfsz	9,f
  2151  03DD  2BDA               	goto	u985
  2152  03DE  3001               	movlw	1
  2153  03DF                     u995:	
  2154  03DF  36F1               	lsrf	___wmul@multiplier+1,f
  2155  03E0  0CF0               	rrf	___wmul@multiplier,f
  2156  03E1  0B89               	decfsz	9,f
  2157  03E2  2BDF               	goto	u995
  2158  03E3  0870               	movf	___wmul@multiplier,w
  2159  03E4  0471               	iorwf	___wmul@multiplier+1,w
  2160  03E5  1D03               	btfss	3,2
  2161  03E6  2BD3               	goto	l1458
  2162  03E7  0875               	movf	___wmul@product+1,w
  2163  03E8  00F1               	movwf	?___wmul+1
  2164  03E9  0874               	movf	___wmul@product,w
  2165  03EA  00F0               	movwf	?___wmul
  2166  03EB  0008               	return
  2167  03EC                     __end_of___wmul:	
  2168                           
  2169                           	psect	text7
  2170  047C                     __ptext7:	
  2171 ;; *************** function ___llmod *****************
  2172 ;; Defined at:
  2173 ;;		line 6 in file "/opt/microchip/xc8/v1.41/sources/common/llmod.c"
  2174 ;; Parameters:    Size  Location     Type
  2175 ;;  divisor         4    0[COMMON] unsigned long 
  2176 ;;  dividend        4    4[COMMON] unsigned long 
  2177 ;; Auto vars:     Size  Location     Type
  2178 ;;  counter         1    9[COMMON] unsigned char 
  2179 ;; Return value:  Size  Location     Type
  2180 ;;                  4    0[COMMON] unsigned long 
  2181 ;; Registers used:
  2182 ;;		wreg, status,2, status,0
  2183 ;; Tracked objects:
  2184 ;;		On entry : 0/0
  2185 ;;		On exit  : 0/0
  2186 ;;		Unchanged: 0/0
  2187 ;; Data sizes:     COMMON   BANK0   BANK1   BANK2   BANK3   BANK4
  2188 ;;      Params:         8       0       0       0       0       0
  2189 ;;      Locals:         1       0       0       0       0       0
  2190 ;;      Temps:          1       0       0       0       0       0
  2191 ;;      Totals:        10       0       0       0       0       0
  2192 ;;Total ram usage:       10 bytes
  2193 ;; Hardware stack levels used:    1
  2194 ;; This function calls:
  2195 ;;		Nothing
  2196 ;; This function is called by:
  2197 ;;		_xvprintf
  2198 ;; This function uses a non-reentrant model
  2199 ;;
  2200                           
  2201                           
  2202                           ;psect for function ___llmod
  2203  047C                     ___llmod:	
  2204                           
  2205                           ;incstack = 0
  2206                           ; Regs used in ___llmod: [wreg+status,2+status,0]
  2207  047C  0873               	movf	___llmod@divisor+3,w
  2208  047D  0472               	iorwf	___llmod@divisor+2,w
  2209  047E  0471               	iorwf	___llmod@divisor+1,w
  2210  047F  0470               	iorwf	___llmod@divisor,w
  2211  0480  1903               	skipnz
  2212  0481  2CB5               	goto	l1510
  2213  0482  01F9               	clrf	___llmod@counter
  2214  0483  0AF9               	incf	___llmod@counter,f
  2215  0484                     l1500:	
  2216  0484  1BF3               	btfsc	___llmod@divisor+3,7
  2217  0485  2C92               	goto	l1502
  2218  0486  3001               	movlw	1
  2219  0487                     u1095:	
  2220  0487  35F0               	lslf	___llmod@divisor,f
  2221  0488  0DF1               	rlf	___llmod@divisor+1,f
  2222  0489  0DF2               	rlf	___llmod@divisor+2,f
  2223  048A  0DF3               	rlf	___llmod@divisor+3,f
  2224  048B  0B89               	decfsz	9,f
  2225  048C  2C87               	goto	u1095
  2226  048D  3001               	movlw	1
  2227  048E  00F8               	movwf	??___llmod
  2228  048F  0878               	movf	??___llmod,w
  2229  0490  07F9               	addwf	___llmod@counter,f
  2230  0491  2C84               	goto	l1500
  2231  0492                     l1502:	
  2232  0492  0873               	movf	___llmod@divisor+3,w
  2233  0493  0277               	subwf	___llmod@dividend+3,w
  2234  0494  1D03               	skipz
  2235  0495  2CA0               	goto	u1115
  2236  0496  0872               	movf	___llmod@divisor+2,w
  2237  0497  0276               	subwf	___llmod@dividend+2,w
  2238  0498  1D03               	skipz
  2239  0499  2CA0               	goto	u1115
  2240  049A  0871               	movf	___llmod@divisor+1,w
  2241  049B  0275               	subwf	___llmod@dividend+1,w
  2242  049C  1D03               	skipz
  2243  049D  2CA0               	goto	u1115
  2244  049E  0870               	movf	___llmod@divisor,w
  2245  049F  0274               	subwf	___llmod@dividend,w
  2246  04A0                     u1115:	
  2247  04A0  1C03               	skipc
  2248  04A1  2CAA               	goto	l1506
  2249  04A2  0870               	movf	___llmod@divisor,w
  2250  04A3  02F4               	subwf	___llmod@dividend,f
  2251  04A4  0871               	movf	___llmod@divisor+1,w
  2252  04A5  3BF5               	subwfb	___llmod@dividend+1,f
  2253  04A6  0872               	movf	___llmod@divisor+2,w
  2254  04A7  3BF6               	subwfb	___llmod@dividend+2,f
  2255  04A8  0873               	movf	___llmod@divisor+3,w
  2256  04A9  3BF7               	subwfb	___llmod@dividend+3,f
  2257  04AA                     l1506:	
  2258  04AA  3001               	movlw	1
  2259  04AB                     u1125:	
  2260  04AB  36F3               	lsrf	___llmod@divisor+3,f
  2261  04AC  0CF2               	rrf	___llmod@divisor+2,f
  2262  04AD  0CF1               	rrf	___llmod@divisor+1,f
  2263  04AE  0CF0               	rrf	___llmod@divisor,f
  2264  04AF  0B89               	decfsz	9,f
  2265  04B0  2CAB               	goto	u1125
  2266  04B1  3001               	movlw	1
  2267  04B2  02F9               	subwf	___llmod@counter,f
  2268  04B3  1D03               	btfss	3,2
  2269  04B4  2C92               	goto	l1502
  2270  04B5                     l1510:	
  2271  04B5  0877               	movf	___llmod@dividend+3,w
  2272  04B6  00F3               	movwf	?___llmod+3
  2273  04B7  0876               	movf	___llmod@dividend+2,w
  2274  04B8  00F2               	movwf	?___llmod+2
  2275  04B9  0875               	movf	___llmod@dividend+1,w
  2276  04BA  00F1               	movwf	?___llmod+1
  2277  04BB  0874               	movf	___llmod@dividend,w
  2278  04BC  00F0               	movwf	?___llmod
  2279  04BD  0008               	return
  2280  04BE                     __end_of___llmod:	
  2281                           
  2282                           	psect	text8
  2283  0505                     __ptext8:	
  2284 ;; *************** function ___lldiv *****************
  2285 ;; Defined at:
  2286 ;;		line 6 in file "/opt/microchip/xc8/v1.41/sources/common/lldiv.c"
  2287 ;; Parameters:    Size  Location     Type
  2288 ;;  divisor         4    0[COMMON] unsigned long 
  2289 ;;  dividend        4    4[COMMON] unsigned long 
  2290 ;; Auto vars:     Size  Location     Type
  2291 ;;  quotient        4    9[COMMON] unsigned long 
  2292 ;;  counter         1   13[COMMON] unsigned char 
  2293 ;; Return value:  Size  Location     Type
  2294 ;;                  4    0[COMMON] unsigned long 
  2295 ;; Registers used:
  2296 ;;		wreg, status,2, status,0
  2297 ;; Tracked objects:
  2298 ;;		On entry : 0/0
  2299 ;;		On exit  : 0/0
  2300 ;;		Unchanged: 0/0
  2301 ;; Data sizes:     COMMON   BANK0   BANK1   BANK2   BANK3   BANK4
  2302 ;;      Params:         8       0       0       0       0       0
  2303 ;;      Locals:         5       0       0       0       0       0
  2304 ;;      Temps:          1       0       0       0       0       0
  2305 ;;      Totals:        14       0       0       0       0       0
  2306 ;;Total ram usage:       14 bytes
  2307 ;; Hardware stack levels used:    1
  2308 ;; This function calls:
  2309 ;;		Nothing
  2310 ;; This function is called by:
  2311 ;;		_xvprintf
  2312 ;; This function uses a non-reentrant model
  2313 ;;
  2314                           
  2315                           
  2316                           ;psect for function ___lldiv
  2317  0505                     ___lldiv:	
  2318                           
  2319                           ;incstack = 0
  2320                           ; Regs used in ___lldiv: [wreg+status,2+status,0]
  2321  0505  3000               	movlw	0
  2322  0506  00FC               	movwf	___lldiv@quotient+3
  2323  0507  3000               	movlw	0
  2324  0508  00FB               	movwf	___lldiv@quotient+2
  2325  0509  3000               	movlw	0
  2326  050A  00FA               	movwf	___lldiv@quotient+1
  2327  050B  3000               	movlw	0
  2328  050C  00F9               	movwf	___lldiv@quotient
  2329  050D  0873               	movf	___lldiv@divisor+3,w
  2330  050E  0472               	iorwf	___lldiv@divisor+2,w
  2331  050F  0471               	iorwf	___lldiv@divisor+1,w
  2332  0510  0470               	iorwf	___lldiv@divisor,w
  2333  0511  1903               	skipnz
  2334  0512  2D4E               	goto	l1490
  2335  0513  01FD               	clrf	___lldiv@counter
  2336  0514  0AFD               	incf	___lldiv@counter,f
  2337  0515                     l1476:	
  2338  0515  1BF3               	btfsc	___lldiv@divisor+3,7
  2339  0516  2D23               	goto	l1478
  2340  0517  3001               	movlw	1
  2341  0518                     u1025:	
  2342  0518  35F0               	lslf	___lldiv@divisor,f
  2343  0519  0DF1               	rlf	___lldiv@divisor+1,f
  2344  051A  0DF2               	rlf	___lldiv@divisor+2,f
  2345  051B  0DF3               	rlf	___lldiv@divisor+3,f
  2346  051C  0B89               	decfsz	9,f
  2347  051D  2D18               	goto	u1025
  2348  051E  3001               	movlw	1
  2349  051F  00F8               	movwf	??___lldiv
  2350  0520  0878               	movf	??___lldiv,w
  2351  0521  07FD               	addwf	___lldiv@counter,f
  2352  0522  2D15               	goto	l1476
  2353  0523                     l1478:	
  2354  0523  3001               	movlw	1
  2355  0524                     u1045:	
  2356  0524  35F9               	lslf	___lldiv@quotient,f
  2357  0525  0DFA               	rlf	___lldiv@quotient+1,f
  2358  0526  0DFB               	rlf	___lldiv@quotient+2,f
  2359  0527  0DFC               	rlf	___lldiv@quotient+3,f
  2360  0528  0B89               	decfsz	9,f
  2361  0529  2D24               	goto	u1045
  2362  052A  0873               	movf	___lldiv@divisor+3,w
  2363  052B  0277               	subwf	___lldiv@dividend+3,w
  2364  052C  1D03               	skipz
  2365  052D  2D38               	goto	u1055
  2366  052E  0872               	movf	___lldiv@divisor+2,w
  2367  052F  0276               	subwf	___lldiv@dividend+2,w
  2368  0530  1D03               	skipz
  2369  0531  2D38               	goto	u1055
  2370  0532  0871               	movf	___lldiv@divisor+1,w
  2371  0533  0275               	subwf	___lldiv@dividend+1,w
  2372  0534  1D03               	skipz
  2373  0535  2D38               	goto	u1055
  2374  0536  0870               	movf	___lldiv@divisor,w
  2375  0537  0274               	subwf	___lldiv@dividend,w
  2376  0538                     u1055:	
  2377  0538  1C03               	skipc
  2378  0539  2D43               	goto	l1486
  2379  053A  0870               	movf	___lldiv@divisor,w
  2380  053B  02F4               	subwf	___lldiv@dividend,f
  2381  053C  0871               	movf	___lldiv@divisor+1,w
  2382  053D  3BF5               	subwfb	___lldiv@dividend+1,f
  2383  053E  0872               	movf	___lldiv@divisor+2,w
  2384  053F  3BF6               	subwfb	___lldiv@dividend+2,f
  2385  0540  0873               	movf	___lldiv@divisor+3,w
  2386  0541  3BF7               	subwfb	___lldiv@dividend+3,f
  2387  0542  1479               	bsf	___lldiv@quotient,0
  2388  0543                     l1486:	
  2389  0543  3001               	movlw	1
  2390  0544                     u1065:	
  2391  0544  36F3               	lsrf	___lldiv@divisor+3,f
  2392  0545  0CF2               	rrf	___lldiv@divisor+2,f
  2393  0546  0CF1               	rrf	___lldiv@divisor+1,f
  2394  0547  0CF0               	rrf	___lldiv@divisor,f
  2395  0548  0B89               	decfsz	9,f
  2396  0549  2D44               	goto	u1065
  2397  054A  3001               	movlw	1
  2398  054B  02FD               	subwf	___lldiv@counter,f
  2399  054C  1D03               	btfss	3,2
  2400  054D  2D23               	goto	l1478
  2401  054E                     l1490:	
  2402  054E  087C               	movf	___lldiv@quotient+3,w
  2403  054F  00F3               	movwf	?___lldiv+3
  2404  0550  087B               	movf	___lldiv@quotient+2,w
  2405  0551  00F2               	movwf	?___lldiv+2
  2406  0552  087A               	movf	___lldiv@quotient+1,w
  2407  0553  00F1               	movwf	?___lldiv+1
  2408  0554  0879               	movf	___lldiv@quotient,w
  2409  0555  00F0               	movwf	?___lldiv
  2410  0556  0008               	return
  2411  0557                     __end_of___lldiv:	
  2412                           
  2413                           	psect	text9
  2414  0557                     __ptext9:	
  2415 ;; *************** function _LCD_Init *****************
  2416 ;; Defined at:
  2417 ;;		line 28 in file "LCD.c"
  2418 ;; Parameters:    Size  Location     Type
  2419 ;;		None
  2420 ;; Auto vars:     Size  Location     Type
  2421 ;;		None
  2422 ;; Return value:  Size  Location     Type
  2423 ;;                  1    wreg      void 
  2424 ;; Registers used:
  2425 ;;		wreg, status,2, status,0, pclath, cstack
  2426 ;; Tracked objects:
  2427 ;;		On entry : 0/0
  2428 ;;		On exit  : 0/0
  2429 ;;		Unchanged: 0/0
  2430 ;; Data sizes:     COMMON   BANK0   BANK1   BANK2   BANK3   BANK4
  2431 ;;      Params:         0       0       0       0       0       0
  2432 ;;      Locals:         0       0       0       0       0       0
  2433 ;;      Temps:          2       0       0       0       0       0
  2434 ;;      Totals:         2       0       0       0       0       0
  2435 ;;Total ram usage:        2 bytes
  2436 ;; Hardware stack levels used:    1
  2437 ;; Hardware stack levels required when called:    2
  2438 ;; This function calls:
  2439 ;;		_LCD_DisplayClear
  2440 ;;		_LCD_WriteData
  2441 ;; This function is called by:
  2442 ;;		_main
  2443 ;; This function uses a non-reentrant model
  2444 ;;
  2445                           
  2446                           
  2447                           ;psect for function _LCD_Init
  2448  0557                     _LCD_Init:	
  2449                           
  2450                           ;LCD.c: 30: RA4 = 0;
  2451                           
  2452                           ;incstack = 0
  2453                           ; Regs used in _LCD_Init: [wreg+status,2+status,0+pclath+cstack]
  2454  0557  0020               	movlb	0	; select bank0
  2455  0558  120C               	bcf	12,4	;volatile
  2456                           
  2457                           ;LCD.c: 31: RA3 = 0;
  2458  0559  118C               	bcf	12,3	;volatile
  2459                           
  2460                           ;LCD.c: 33: _delay((unsigned long)((30)*(32000000/4000.0)));
  2461  055A  3002               	movlw	2
  2462  055B  00F5               	movwf	??_LCD_Init+1
  2463  055C  3038               	movlw	56
  2464  055D  00F4               	movwf	??_LCD_Init
  2465  055E  30AD               	movlw	173
  2466  055F                     u1677:	
  2467  055F  0B89               	decfsz	9,f
  2468  0560  2D5F               	goto	u1677
  2469  0561  0BF4               	decfsz	??_LCD_Init,f
  2470  0562  2D5F               	goto	u1677
  2471  0563  0BF5               	decfsz	??_LCD_Init+1,f
  2472  0564  2D5F               	goto	u1677
  2473  0565  0000               	nop
  2474                           
  2475                           ;LCD.c: 34: PORTB = ( ((0x03&0x0C)<<1)|(0x03&0x03) );
  2476  0566  3003               	movlw	3
  2477  0567  0020               	movlb	0	; select bank0
  2478  0568  008D               	movwf	13	;volatile
  2479                           
  2480                           ;LCD.c: 35: {RA3 = 1; _delay((unsigned long)((1)*(32000000/4000000.0))); RA3 = 0; _delay
      +                          ((unsigned long)((1)*(32000000/4000000.0)));};
  2481  0569  158C               	bsf	12,3	;volatile
  2482  056A  3200               	nop2	;2 cycle nop
  2483  056B  3200               	nop2	;2 cycle nop
  2484  056C  3200               	nop2	;2 cycle nop
  2485  056D  3200               	nop2	;2 cycle nop
  2486  056E  0020               	movlb	0	; select bank0
  2487  056F  118C               	bcf	12,3	;volatile
  2488  0570  3200               	nop2	;2 cycle nop
  2489  0571  3200               	nop2	;2 cycle nop
  2490  0572  3200               	nop2	;2 cycle nop
  2491  0573  3200               	nop2	;2 cycle nop
  2492                           
  2493                           ;LCD.c: 36: _delay((unsigned long)((5)*(32000000/4000.0)));
  2494  0574  3034               	movlw	52
  2495  0575  00F4               	movwf	??_LCD_Init
  2496  0576  30F2               	movlw	242
  2497  0577                     u1687:	
  2498  0577  0B89               	decfsz	9,f
  2499  0578  2D77               	goto	u1687
  2500  0579  0BF4               	decfsz	??_LCD_Init,f
  2501  057A  2D77               	goto	u1687
  2502                           
  2503                           ;LCD.c: 37: {RA3 = 1; _delay((unsigned long)((1)*(32000000/4000000.0))); RA3 = 0; _delay
      +                          ((unsigned long)((1)*(32000000/4000000.0)));};
  2504  057B  0020               	movlb	0	; select bank0
  2505  057C  158C               	bsf	12,3	;volatile
  2506  057D  3200               	nop2	;2 cycle nop
  2507  057E  3200               	nop2	;2 cycle nop
  2508  057F  3200               	nop2	;2 cycle nop
  2509  0580  3200               	nop2	;2 cycle nop
  2510  0581  0020               	movlb	0	; select bank0
  2511  0582  118C               	bcf	12,3	;volatile
  2512  0583  3200               	nop2	;2 cycle nop
  2513  0584  3200               	nop2	;2 cycle nop
  2514  0585  3200               	nop2	;2 cycle nop
  2515  0586  3200               	nop2	;2 cycle nop
  2516                           
  2517                           ;LCD.c: 38: _delay((unsigned long)((400)*(32000000/4000000.0)));
  2518  0587  3005               	movlw	5
  2519  0588  00F4               	movwf	??_LCD_Init
  2520  0589  3026               	movlw	38
  2521  058A                     u1697:	
  2522  058A  0B89               	decfsz	9,f
  2523  058B  2D8A               	goto	u1697
  2524  058C  0BF4               	decfsz	??_LCD_Init,f
  2525  058D  2D8A               	goto	u1697
  2526  058E  3200               	nop2
  2527                           
  2528                           ;LCD.c: 39: {RA3 = 1; _delay((unsigned long)((1)*(32000000/4000000.0))); RA3 = 0; _delay
      +                          ((unsigned long)((1)*(32000000/4000000.0)));};
  2529  058F  0020               	movlb	0	; select bank0
  2530  0590  158C               	bsf	12,3	;volatile
  2531  0591  3200               	nop2	;2 cycle nop
  2532  0592  3200               	nop2	;2 cycle nop
  2533  0593  3200               	nop2	;2 cycle nop
  2534  0594  3200               	nop2	;2 cycle nop
  2535  0595  0020               	movlb	0	; select bank0
  2536  0596  118C               	bcf	12,3	;volatile
  2537  0597  3200               	nop2	;2 cycle nop
  2538  0598  3200               	nop2	;2 cycle nop
  2539  0599  3200               	nop2	;2 cycle nop
  2540  059A  3200               	nop2	;2 cycle nop
  2541                           
  2542                           ;LCD.c: 40: _delay((unsigned long)((400)*(32000000/4000000.0)));
  2543  059B  3005               	movlw	5
  2544  059C  00F4               	movwf	??_LCD_Init
  2545  059D  3026               	movlw	38
  2546  059E                     u1707:	
  2547  059E  0B89               	decfsz	9,f
  2548  059F  2D9E               	goto	u1707
  2549  05A0  0BF4               	decfsz	??_LCD_Init,f
  2550  05A1  2D9E               	goto	u1707
  2551  05A2  3200               	nop2
  2552                           
  2553                           ;LCD.c: 41: PORTB = ( ((0x02&0x0C)<<1)|(0x02&0x03) );
  2554  05A3  3002               	movlw	2
  2555  05A4  0020               	movlb	0	; select bank0
  2556  05A5  008D               	movwf	13	;volatile
  2557                           
  2558                           ;LCD.c: 42: {RA3 = 1; _delay((unsigned long)((1)*(32000000/4000000.0))); RA3 = 0; _delay
      +                          ((unsigned long)((1)*(32000000/4000000.0)));};
  2559  05A6  158C               	bsf	12,3	;volatile
  2560  05A7  3200               	nop2	;2 cycle nop
  2561  05A8  3200               	nop2	;2 cycle nop
  2562  05A9  3200               	nop2	;2 cycle nop
  2563  05AA  3200               	nop2	;2 cycle nop
  2564  05AB  0020               	movlb	0	; select bank0
  2565  05AC  118C               	bcf	12,3	;volatile
  2566  05AD  3200               	nop2	;2 cycle nop
  2567  05AE  3200               	nop2	;2 cycle nop
  2568  05AF  3200               	nop2	;2 cycle nop
  2569  05B0  3200               	nop2	;2 cycle nop
  2570                           
  2571                           ;LCD.c: 44: LCD_WriteData(0x28);
  2572  05B1  3028               	movlw	40
  2573  05B2  3184  2442  3185   	fcall	_LCD_WriteData
  2574                           
  2575                           ;LCD.c: 45: LCD_WriteData(0x0c);
  2576  05B5  300C               	movlw	12
  2577  05B6  3184  2442  3185   	fcall	_LCD_WriteData
  2578                           
  2579                           ;LCD.c: 46: LCD_DisplayClear();
  2580  05B9  3183  235D  3185   	fcall	_LCD_DisplayClear
  2581                           
  2582                           ;LCD.c: 47: LCD_WriteData(0x06);
  2583  05BC  3006               	movlw	6
  2584  05BD  3184  2442         	fcall	_LCD_WriteData
  2585  05BF  0008               	return
  2586  05C0                     __end_of_LCD_Init:	
  2587                           
  2588                           	psect	text10
  2589  035D                     __ptext10:	
  2590 ;; *************** function _LCD_DisplayClear *****************
  2591 ;; Defined at:
  2592 ;;		line 64 in file "LCD.c"
  2593 ;; Parameters:    Size  Location     Type
  2594 ;;		None
  2595 ;; Auto vars:     Size  Location     Type
  2596 ;;		None
  2597 ;; Return value:  Size  Location     Type
  2598 ;;                  1    wreg      void 
  2599 ;; Registers used:
  2600 ;;		wreg, status,2, status,0, pclath, cstack
  2601 ;; Tracked objects:
  2602 ;;		On entry : 0/0
  2603 ;;		On exit  : 0/0
  2604 ;;		Unchanged: 0/0
  2605 ;; Data sizes:     COMMON   BANK0   BANK1   BANK2   BANK3   BANK4
  2606 ;;      Params:         0       0       0       0       0       0
  2607 ;;      Locals:         0       0       0       0       0       0
  2608 ;;      Temps:          1       0       0       0       0       0
  2609 ;;      Totals:         1       0       0       0       0       0
  2610 ;;Total ram usage:        1 bytes
  2611 ;; Hardware stack levels used:    1
  2612 ;; Hardware stack levels required when called:    1
  2613 ;; This function calls:
  2614 ;;		_LCD_WriteData
  2615 ;; This function is called by:
  2616 ;;		_LCD_Init
  2617 ;; This function uses a non-reentrant model
  2618 ;;
  2619                           
  2620                           
  2621                           ;psect for function _LCD_DisplayClear
  2622  035D                     _LCD_DisplayClear:	
  2623                           
  2624                           ;LCD.c: 66: RA4 = 0;
  2625                           
  2626                           ;incstack = 0
  2627                           ; Regs used in _LCD_DisplayClear: [wreg+status,2+status,0+pclath+cstack]
  2628  035D  0020               	movlb	0	; select bank0
  2629  035E  120C               	bcf	12,4	;volatile
  2630                           
  2631                           ;LCD.c: 67: LCD_WriteData(0x01);
  2632  035F  3001               	movlw	1
  2633  0360  3184  2442  3183   	fcall	_LCD_WriteData
  2634                           
  2635                           ;LCD.c: 68: _delay((unsigned long)((2)*(32000000/4000.0)));
  2636  0363  3015               	movlw	21
  2637  0364  00F3               	movwf	??_LCD_DisplayClear
  2638  0365  30C6               	movlw	198
  2639  0366                     u1717:	
  2640  0366  0B89               	decfsz	9,f
  2641  0367  2B66               	goto	u1717
  2642  0368  0BF3               	decfsz	??_LCD_DisplayClear,f
  2643  0369  2B66               	goto	u1717
  2644  036A  3200               	nop2
  2645  036B  0008               	return
  2646  036C                     __end_of_LCD_DisplayClear:	
  2647                           
  2648                           	psect	text11
  2649  03A4                     __ptext11:	
  2650 ;; *************** function _LCD_CursorPosition *****************
  2651 ;; Defined at:
  2652 ;;		line 86 in file "LCD.c"
  2653 ;; Parameters:    Size  Location     Type
  2654 ;;  tx              1    wreg     unsigned char 
  2655 ;;  ty              1    3[COMMON] unsigned char 
  2656 ;; Auto vars:     Size  Location     Type
  2657 ;;  tx              1    5[COMMON] unsigned char 
  2658 ;; Return value:  Size  Location     Type
  2659 ;;                  1    wreg      void 
  2660 ;; Registers used:
  2661 ;;		wreg, status,2, status,0, pclath, cstack
  2662 ;; Tracked objects:
  2663 ;;		On entry : 0/0
  2664 ;;		On exit  : 0/0
  2665 ;;		Unchanged: 0/0
  2666 ;; Data sizes:     COMMON   BANK0   BANK1   BANK2   BANK3   BANK4
  2667 ;;      Params:         1       0       0       0       0       0
  2668 ;;      Locals:         1       0       0       0       0       0
  2669 ;;      Temps:          1       0       0       0       0       0
  2670 ;;      Totals:         3       0       0       0       0       0
  2671 ;;Total ram usage:        3 bytes
  2672 ;; Hardware stack levels used:    1
  2673 ;; Hardware stack levels required when called:    1
  2674 ;; This function calls:
  2675 ;;		_LCD_WriteData
  2676 ;; This function is called by:
  2677 ;;		_main
  2678 ;; This function uses a non-reentrant model
  2679 ;;
  2680                           
  2681                           
  2682                           ;psect for function _LCD_CursorPosition
  2683  03A4                     _LCD_CursorPosition:	
  2684                           
  2685                           ;incstack = 0
  2686                           ; Regs used in _LCD_CursorPosition: [wreg+status,2+status,0+pclath+cstack]
  2687                           ;LCD_CursorPosition@tx stored from wreg
  2688  03A4  00F5               	movwf	LCD_CursorPosition@tx
  2689                           
  2690                           ;LCD.c: 88: RA4 = 0;
  2691  03A5  0020               	movlb	0	; select bank0
  2692  03A6  120C               	bcf	12,4	;volatile
  2693                           
  2694                           ;LCD.c: 89: LCD_WriteData(0x80|tx|(0x40*ty));
  2695  03A7  0873               	movf	LCD_CursorPosition@ty,w
  2696  03A8  00F4               	movwf	??_LCD_CursorPosition
  2697  03A9  3005               	movlw	5
  2698  03AA                     u1435:	
  2699  03AA  35F4               	lslf	??_LCD_CursorPosition,f
  2700  03AB  3EFF               	addlw	-1
  2701  03AC  1D03               	skipz
  2702  03AD  2BAA               	goto	u1435
  2703  03AE  3574               	lslf	??_LCD_CursorPosition,w
  2704  03AF  0475               	iorwf	LCD_CursorPosition@tx,w
  2705  03B0  3880               	iorlw	-128
  2706  03B1  3184  2442  3183   	fcall	_LCD_WriteData
  2707                           
  2708                           ;LCD.c: 90: _delay((unsigned long)((40)*(32000000/4000000.0)));
  2709  03B4  306A               	movlw	106
  2710  03B5                     u1727:	
  2711  03B5  0B89               	decfsz	9,f
  2712  03B6  2BB5               	goto	u1727
  2713  03B7  3200               	nop2
  2714  03B8  0008               	return
  2715  03B9                     __end_of_LCD_CursorPosition:	
  2716                           
  2717                           	psect	text12
  2718  0442                     __ptext12:	
  2719 ;; *************** function _LCD_WriteData *****************
  2720 ;; Defined at:
  2721 ;;		line 15 in file "LCD.c"
  2722 ;; Parameters:    Size  Location     Type
  2723 ;;  point           1    wreg     char 
  2724 ;; Auto vars:     Size  Location     Type
  2725 ;;  point           1    2[COMMON] char 
  2726 ;; Return value:  Size  Location     Type
  2727 ;;                  1    wreg      void 
  2728 ;; Registers used:
  2729 ;;		wreg, status,2, status,0
  2730 ;; Tracked objects:
  2731 ;;		On entry : 0/0
  2732 ;;		On exit  : 0/0
  2733 ;;		Unchanged: 0/0
  2734 ;; Data sizes:     COMMON   BANK0   BANK1   BANK2   BANK3   BANK4
  2735 ;;      Params:         0       0       0       0       0       0
  2736 ;;      Locals:         1       0       0       0       0       0
  2737 ;;      Temps:          2       0       0       0       0       0
  2738 ;;      Totals:         3       0       0       0       0       0
  2739 ;;Total ram usage:        3 bytes
  2740 ;; Hardware stack levels used:    1
  2741 ;; This function calls:
  2742 ;;		Nothing
  2743 ;; This function is called by:
  2744 ;;		_LCD_Init
  2745 ;;		_LCD_Put
  2746 ;;		_LCD_DisplayClear
  2747 ;;		_LCD_CursorPosition
  2748 ;;		_LCD_CursorHome
  2749 ;;		_LCD_CursorShift
  2750 ;;		_LCD_DispShift
  2751 ;; This function uses a non-reentrant model
  2752 ;;
  2753                           
  2754                           
  2755                           ;psect for function _LCD_WriteData
  2756  0442                     _LCD_WriteData:	
  2757                           
  2758                           ;incstack = 0
  2759                           ; Regs used in _LCD_WriteData: [wreg+status,2+status,0]
  2760                           ;LCD_WriteData@point stored from wreg
  2761  0442  00F2               	movwf	LCD_WriteData@point
  2762                           
  2763                           ;LCD.c: 17: _delay((unsigned long)((80)*(32000000/4000000.0)));
  2764  0443  30D5               	movlw	213
  2765  0444                     u1737:	
  2766  0444  0B89               	decfsz	9,f
  2767  0445  2C44               	goto	u1737
  2768  0446  0000               	nop
  2769                           
  2770                           ;LCD.c: 18: PORTB = ( (((point>>4)&0x0F&0x0C)<<1)|((point>>4)&0x0F&0x03) );
  2771  0447  0872               	movf	LCD_WriteData@point,w
  2772  0448  00F0               	movwf	??_LCD_WriteData
  2773  0449  3004               	movlw	4
  2774  044A                     u925:	
  2775  044A  1003               	clrc
  2776  044B  1BF0               	btfsc	??_LCD_WriteData,7
  2777  044C  1403               	setc
  2778  044D  0CF0               	rrf	??_LCD_WriteData,f
  2779  044E  0B89               	decfsz	9,f
  2780  044F  2C4A               	goto	u925
  2781  0450  3003               	movlw	3
  2782  0451  0570               	andwf	??_LCD_WriteData,w
  2783  0452  00F1               	movwf	??_LCD_WriteData+1
  2784  0453  0E72               	swapf	LCD_WriteData@point,w
  2785  0454  390F               	andlw	15
  2786  0455  1989               	btfsc	9,3
  2787  0456  38F0               	iorlw	240
  2788  0457  390C               	andlw	12
  2789  0458  0709               	addwf	9,w
  2790  0459  0471               	iorwf	??_LCD_WriteData+1,w
  2791  045A  0020               	movlb	0	; select bank0
  2792  045B  008D               	movwf	13	;volatile
  2793                           
  2794                           ;LCD.c: 19: {RA3 = 1; _delay((unsigned long)((1)*(32000000/4000000.0))); RA3 = 0; _delay
      +                          ((unsigned long)((1)*(32000000/4000000.0)));};
  2795  045C  158C               	bsf	12,3	;volatile
  2796  045D  3200               	nop2	;2 cycle nop
  2797  045E  3200               	nop2	;2 cycle nop
  2798  045F  3200               	nop2	;2 cycle nop
  2799  0460  3200               	nop2	;2 cycle nop
  2800  0461  0020               	movlb	0	; select bank0
  2801  0462  118C               	bcf	12,3	;volatile
  2802  0463  3200               	nop2	;2 cycle nop
  2803  0464  3200               	nop2	;2 cycle nop
  2804  0465  3200               	nop2	;2 cycle nop
  2805  0466  3200               	nop2	;2 cycle nop
  2806                           
  2807                           ;LCD.c: 20: PORTB = ( ((point&0x0F&0x0C)<<1)|(point&0x0F&0x03) );
  2808  0467  3003               	movlw	3
  2809  0468  0572               	andwf	LCD_WriteData@point,w
  2810  0469  00F0               	movwf	??_LCD_WriteData
  2811  046A  0872               	movf	LCD_WriteData@point,w
  2812  046B  390C               	andlw	12
  2813  046C  0709               	addwf	9,w
  2814  046D  0470               	iorwf	??_LCD_WriteData,w
  2815  046E  0020               	movlb	0	; select bank0
  2816  046F  008D               	movwf	13	;volatile
  2817                           
  2818                           ;LCD.c: 21: {RA3 = 1; _delay((unsigned long)((1)*(32000000/4000000.0))); RA3 = 0; _delay
      +                          ((unsigned long)((1)*(32000000/4000000.0)));};
  2819  0470  158C               	bsf	12,3	;volatile
  2820  0471  3200               	nop2	;2 cycle nop
  2821  0472  3200               	nop2	;2 cycle nop
  2822  0473  3200               	nop2	;2 cycle nop
  2823  0474  3200               	nop2	;2 cycle nop
  2824  0475  0020               	movlb	0	; select bank0
  2825  0476  118C               	bcf	12,3	;volatile
  2826  0477  3200               	nop2	;2 cycle nop
  2827  0478  3200               	nop2	;2 cycle nop
  2828  0479  3200               	nop2	;2 cycle nop
  2829  047A  3200               	nop2	;2 cycle nop
  2830  047B  0008               	return
  2831  047C                     __end_of_LCD_WriteData:	
  2832                           
  2833                           	psect	text13
  2834  03EC                     __ptext13:	
  2835 ;; *************** function _EEPROM_MultiRead *****************
  2836 ;; Defined at:
  2837 ;;		line 30 in file "eeprom.c"
  2838 ;; Parameters:    Size  Location     Type
  2839 ;;  pData           1    wreg     PTR unsigned char 
  2840 ;;		 -> main@readdat(5), 
  2841 ;;  size            1    4[COMMON] unsigned char 
  2842 ;;  addr            1    5[COMMON] unsigned char 
  2843 ;; Auto vars:     Size  Location     Type
  2844 ;;  pData           1    9[COMMON] PTR unsigned char 
  2845 ;;		 -> main@readdat(5), 
  2846 ;;  i               1   10[COMMON] unsigned char 
  2847 ;; Return value:  Size  Location     Type
  2848 ;;                  1    wreg      char 
  2849 ;; Registers used:
  2850 ;;		wreg, fsr1l, fsr1h, status,2, status,0, pclath, cstack
  2851 ;; Tracked objects:
  2852 ;;		On entry : 0/0
  2853 ;;		On exit  : 0/0
  2854 ;;		Unchanged: 0/0
  2855 ;; Data sizes:     COMMON   BANK0   BANK1   BANK2   BANK3   BANK4
  2856 ;;      Params:         2       0       0       0       0       0
  2857 ;;      Locals:         2       0       0       0       0       0
  2858 ;;      Temps:          3       0       0       0       0       0
  2859 ;;      Totals:         7       0       0       0       0       0
  2860 ;;Total ram usage:        7 bytes
  2861 ;; Hardware stack levels used:    1
  2862 ;; Hardware stack levels required when called:    1
  2863 ;; This function calls:
  2864 ;;		_eeprom_read
  2865 ;; This function is called by:
  2866 ;;		_main
  2867 ;; This function uses a non-reentrant model
  2868 ;;
  2869                           
  2870                           
  2871                           ;psect for function _EEPROM_MultiRead
  2872  03EC                     _EEPROM_MultiRead:	
  2873                           
  2874                           ;incstack = 0
  2875                           ; Regs used in _EEPROM_MultiRead: [wreg+fsr1l+fsr1h+status,2+status,0+pclath+cstack]
  2876                           ;EEPROM_MultiRead@pData stored from wreg
  2877  03EC  00F9               	movwf	EEPROM_MultiRead@pData
  2878                           
  2879                           ;eeprom.c: 32: uint8_t i = 0;
  2880  03ED  01FA               	clrf	EEPROM_MultiRead@i
  2881  03EE                     l1756:	
  2882                           ;eeprom.c: 34: for(;i<size;i++)
  2883                           
  2884  03EE  0874               	movf	EEPROM_MultiRead@size,w
  2885  03EF  027A               	subwf	EEPROM_MultiRead@i,w
  2886  03F0  1803               	btfsc	3,0
  2887  03F1  0008               	return
  2888                           
  2889                           ;eeprom.c: 35: {
  2890                           ;eeprom.c: 36: if((addr+i)>256-1)
  2891  03F2  0875               	movf	EEPROM_MultiRead@addr,w
  2892  03F3  077A               	addwf	EEPROM_MultiRead@i,w
  2893  03F4  00F6               	movwf	??_EEPROM_MultiRead
  2894  03F5  01F7               	clrf	??_EEPROM_MultiRead+1
  2895  03F6  0DF7               	rlf	??_EEPROM_MultiRead+1,f
  2896  03F7  0877               	movf	??_EEPROM_MultiRead+1,w
  2897  03F8  3A80               	xorlw	128
  2898  03F9  00F8               	movwf	??_EEPROM_MultiRead+2
  2899  03FA  3081               	movlw	129
  2900  03FB  0278               	subwf	??_EEPROM_MultiRead+2,w
  2901  03FC  1D03               	skipz
  2902  03FD  2C00               	goto	u1445
  2903  03FE  3000               	movlw	0
  2904  03FF  0276               	subwf	??_EEPROM_MultiRead,w
  2905  0400                     u1445:	
  2906  0400  1803               	btfsc	3,0
  2907  0401  0008               	return
  2908                           
  2909                           ;eeprom.c: 38: pData[i] = eeprom_read(addr+i);
  2910                           
  2911                           ;eeprom.c: 37: return 1;
  2912                           ;	Return value of _EEPROM_MultiRead is never used
  2913  0402  0875               	movf	EEPROM_MultiRead@addr,w
  2914  0403  077A               	addwf	EEPROM_MultiRead@i,w
  2915  0404  3183  23B9  3183   	fcall	_eeprom_read
  2916  0407  00F6               	movwf	??_EEPROM_MultiRead
  2917  0408  087A               	movf	EEPROM_MultiRead@i,w
  2918  0409  0779               	addwf	EEPROM_MultiRead@pData,w
  2919  040A  00F7               	movwf	??_EEPROM_MultiRead+1
  2920  040B  0877               	movf	??_EEPROM_MultiRead+1,w
  2921  040C  0086               	movwf	6
  2922  040D  0187               	clrf	7
  2923  040E  0876               	movf	??_EEPROM_MultiRead,w
  2924  040F  0081               	movwf	1
  2925  0410  3001               	movlw	1
  2926  0411  00F6               	movwf	??_EEPROM_MultiRead
  2927  0412  0876               	movf	??_EEPROM_MultiRead,w
  2928  0413  07FA               	addwf	EEPROM_MultiRead@i,f
  2929  0414  2BEE               	goto	l1756
  2930  0415                     __end_of_EEPROM_MultiRead:	
  2931                           ;eeprom.c: 39: }
  2932                           ;eeprom.c: 41: return 0;
  2933                           ;	Return value of _EEPROM_MultiRead is never used
  2934                           
  2935                           
  2936                           	psect	text14
  2937  03B9                     __ptext14:	
  2938 ;; *************** function _eeprom_read *****************
  2939 ;; Defined at:
  2940 ;;		line 6 in file "/opt/microchip/xc8/v1.41/sources/pic/eeread.c"
  2941 ;; Parameters:    Size  Location     Type
  2942 ;;  addr            1    wreg     unsigned char 
  2943 ;; Auto vars:     Size  Location     Type
  2944 ;;  addr            1    3[COMMON] unsigned char 
  2945 ;; Return value:  Size  Location     Type
  2946 ;;                  1    wreg      unsigned char 
  2947 ;; Registers used:
  2948 ;;		wreg, status,2, status,0
  2949 ;; Tracked objects:
  2950 ;;		On entry : 0/0
  2951 ;;		On exit  : 0/0
  2952 ;;		Unchanged: 0/0
  2953 ;; Data sizes:     COMMON   BANK0   BANK1   BANK2   BANK3   BANK4
  2954 ;;      Params:         0       0       0       0       0       0
  2955 ;;      Locals:         1       0       0       0       0       0
  2956 ;;      Temps:          3       0       0       0       0       0
  2957 ;;      Totals:         4       0       0       0       0       0
  2958 ;;Total ram usage:        4 bytes
  2959 ;; Hardware stack levels used:    1
  2960 ;; This function calls:
  2961 ;;		Nothing
  2962 ;; This function is called by:
  2963 ;;		_EEPROM_MultiRead
  2964 ;; This function uses a non-reentrant model
  2965 ;;
  2966                           
  2967                           
  2968                           ;psect for function _eeprom_read
  2969  03B9                     _eeprom_read:	
  2970                           
  2971                           ;incstack = 0
  2972                           ; Regs used in _eeprom_read: [wreg+status,2+status,0]
  2973                           ;eeprom_read@addr stored from wreg
  2974  03B9  00F3               	movwf	eeprom_read@addr
  2975  03BA                     l298:	
  2976  03BA  0064               	clrwdt	;# 
  2977  03BB  0023               	movlb	3	; select bank3
  2978  03BC  1895               	btfsc	21,1	;volsfr
  2979  03BD  2BBA               	goto	l298
  2980  03BE  0873               	movf	eeprom_read@addr,w
  2981  03BF  00F0               	movwf	??_eeprom_read
  2982  03C0  01F1               	clrf	??_eeprom_read+1
  2983  03C1  0870               	movf	??_eeprom_read,w
  2984  03C2  0091               	movwf	17	;volatile
  2985  03C3  0871               	movf	??_eeprom_read+1,w
  2986  03C4  0092               	movwf	18	;volatile
  2987  03C5  303F               	movlw	63
  2988  03C6  00F2               	movwf	??_eeprom_read+2
  2989  03C7  0872               	movf	??_eeprom_read+2,w
  2990  03C8  0595               	andwf	21,f	;volsfr
  2991  03C9  1415               	bsf	21,0	;volsfr
  2992  03CA  1003               	clrc
  2993  03CB  1815               	btfsc	21,0	;volsfr
  2994  03CC  1403               	setc
  2995  03CD  3000               	movlw	0
  2996  03CE  3D09               	addwfc	9,w
  2997  03CF  0813               	movf	19,w	;volatile
  2998  03D0  0008               	return
  2999  03D1                     __end_of_eeprom_read:	
  3000                           
  3001                           	psect	text15
  3002  038F                     __ptext15:	
  3003 ;; *************** function _Basic_Init *****************
  3004 ;; Defined at:
  3005 ;;		line 35 in file "main.c"
  3006 ;; Parameters:    Size  Location     Type
  3007 ;;		None
  3008 ;; Auto vars:     Size  Location     Type
  3009 ;;		None
  3010 ;; Return value:  Size  Location     Type
  3011 ;;                  1    wreg      char 
  3012 ;; Registers used:
  3013 ;;		wreg, status,2
  3014 ;; Tracked objects:
  3015 ;;		On entry : 0/0
  3016 ;;		On exit  : 0/0
  3017 ;;		Unchanged: 0/0
  3018 ;; Data sizes:     COMMON   BANK0   BANK1   BANK2   BANK3   BANK4
  3019 ;;      Params:         0       0       0       0       0       0
  3020 ;;      Locals:         0       0       0       0       0       0
  3021 ;;      Temps:          0       0       0       0       0       0
  3022 ;;      Totals:         0       0       0       0       0       0
  3023 ;;Total ram usage:        0 bytes
  3024 ;; Hardware stack levels used:    1
  3025 ;; This function calls:
  3026 ;;		Nothing
  3027 ;; This function is called by:
  3028 ;;		_main
  3029 ;; This function uses a non-reentrant model
  3030 ;;
  3031                           
  3032                           
  3033                           ;psect for function _Basic_Init
  3034  038F                     _Basic_Init:	
  3035                           
  3036                           ;main.c: 37: OSCCON = 0xF3;
  3037                           
  3038                           ;incstack = 0
  3039                           ; Regs used in _Basic_Init: [wreg+status,2]
  3040  038F  30F3               	movlw	243
  3041  0390  0021               	movlb	1	; select bank1
  3042  0391  0099               	movwf	25	;volatile
  3043                           
  3044                           ;main.c: 41: TRISA = 0x07;
  3045  0392  3007               	movlw	7
  3046  0393  008C               	movwf	12	;volatile
  3047                           
  3048                           ;main.c: 42: ANSELA = 0x07;
  3049  0394  3007               	movlw	7
  3050  0395  0023               	movlb	3	; select bank3
  3051  0396  008C               	movwf	12	;volatile
  3052                           
  3053                           ;main.c: 44: TRISB = 0x40;
  3054  0397  3040               	movlw	64
  3055  0398  0021               	movlb	1	; select bank1
  3056  0399  008D               	movwf	13	;volatile
  3057                           
  3058                           ;main.c: 45: ANSELB = 0x00;
  3059  039A  0023               	movlb	3	; select bank3
  3060  039B  018D               	clrf	13	;volatile
  3061                           
  3062                           ;main.c: 47: APFCON0 = 0x08;
  3063  039C  3008               	movlw	8
  3064  039D  0022               	movlb	2	; select bank2
  3065  039E  009D               	movwf	29	;volatile
  3066                           
  3067                           ;main.c: 48: APFCON1 = 0x00;
  3068  039F  019E               	clrf	30	;volatile
  3069                           
  3070                           ;main.c: 50: PORTA = 0x00;
  3071  03A0  0020               	movlb	0	; select bank0
  3072  03A1  018C               	clrf	12	;volatile
  3073                           
  3074                           ;main.c: 51: PORTB = 0x00;
  3075  03A2  018D               	clrf	13	;volatile
  3076  03A3  0008               	return
  3077  03A4                     __end_of_Basic_Init:	
  3078                           ;main.c: 53: return 0;
  3079                           ;	Return value of _Basic_Init is never used
  3080                           
  3081  007E                     btemp	set	126	;btemp
  3082  007E                     wtemp0	set	126


Data Sizes:
    Strings     32
    Constant    0
    Data        5
    BSS         5
    Persistent  0
    Stack       0

Auto Spaces:
    Space          Size  Autos    Used
    COMMON           14     14      14
    BANK0            80     69      79
    BANK1            80      0       0
    BANK2            80      0       0
    BANK3            80      0       0
    BANK4            48      0       0

Pointer List with Targets:

    xfunc_in	PTR FTN()unsigned char  size(2) Largest target is 1
		 -> Absolute function(), 

    xprintf@fmt	PTR const unsigned char  size(2) Largest target is 7
		 -> STR_6(CODE[7]), STR_5(CODE[6]), STR_4(CODE[6]), STR_3(CODE[7]), 
		 -> STR_1(CODE[4]), 

    xprintf@arp	PTR void [1] size(1) Largest target is 1
		 -> ?_xfprintf(COMMON[1]), ?_xsprintf(COMMON[1]), ?_xprintf(BANK0[1]), 

    xvprintf@arp	PTR PTR void  size(1) Largest target is 1
		 -> xfprintf@arp(COMMON[1]), xsprintf@arp(COMMON[1]), xprintf@arp(BANK0[1]), 

    xvprintf@p	PTR unsigned char  size(1) Largest target is 1
		 -> ?_xfprintf(COMMON[1]), ?_xsprintf(COMMON[1]), ?_xprintf(BANK0[1]), 

    xvprintf@fmt	PTR const unsigned char  size(2) Largest target is 7
		 -> STR_6(CODE[7]), STR_5(CODE[6]), STR_4(CODE[6]), STR_3(CODE[7]), 
		 -> STR_1(CODE[4]), 

    xputs@str	PTR const unsigned char  size(1) Largest target is 1
		 -> ?_xfprintf(COMMON[1]), ?_xsprintf(COMMON[1]), ?_xprintf(BANK0[1]), 

    outptr	PTR unsigned char  size(1) Largest target is 0
		 -> NULL(NULL[0]), 

    EEPROM_MultiRead@pData	PTR unsigned char  size(1) Largest target is 5
		 -> main@readdat(BANK0[5]), 

    xfunc_out	PTR FTN(unsigned char ,)void  size(2) Largest target is 1
		 -> Absolute function(), LCD_Put(), 


Critical Paths under _main in COMMON

    _xvprintf->___lldiv
    _xputs->_xputc
    _xputc->_LCD_Put
    _LCD_Put->_LCD_WriteData
    _LCD_Init->_LCD_DisplayClear
    _LCD_DisplayClear->_LCD_WriteData
    _LCD_CursorPosition->_LCD_WriteData
    _EEPROM_MultiRead->_eeprom_read

Critical Paths under _main in BANK0

    _main->_xprintf
    _xprintf->_xvprintf

Critical Paths under _main in BANK1

    None.

Critical Paths under _main in BANK2

    None.

Critical Paths under _main in BANK3

    None.

Critical Paths under _main in BANK4

    None.

Call Graph Tables:

 ---------------------------------------------------------------------------------
 (Depth) Function   	        Calls       Base Space   Used Autos Params    Refs
 ---------------------------------------------------------------------------------
 (0) _main                                                13    13      0    4547
                                             56 BANK0     13    13      0
                         _Basic_Init
                   _EEPROM_MultiRead
                 _LCD_CursorPosition
                           _LCD_Init
                            _xprintf
 ---------------------------------------------------------------------------------
 (1) _xprintf                                              8     2      6    3701
                                             48 BANK0      8     2      6
                           _xvprintf
 ---------------------------------------------------------------------------------
 (2) _xvprintf                                            48    45      3    3326
                                              0 BANK0     48    45      3
                            ___lldiv
                            ___llmod
                             ___wmul
                              _xputc
                              _xputs
 ---------------------------------------------------------------------------------
 (3) _xputs                                                2     2      0     337
                                              6 COMMON     2     2      0
                              _xputc
 ---------------------------------------------------------------------------------
 (4) _xputc                                                2     2      0     262
                                              4 COMMON     2     2      0
                   Absolute function *
                            _LCD_Put *
 ---------------------------------------------------------------------------------
 (5) _LCD_Put                                              1     0      1     196
                                              3 COMMON     1     0      1
                      _LCD_WriteData
 ---------------------------------------------------------------------------------
 (5) Absolute function(Fake)                               1     0      1       0
 ---------------------------------------------------------------------------------
 (3) ___wmul                                               6     2      4     220
                                              0 COMMON     6     2      4
 ---------------------------------------------------------------------------------
 (3) ___llmod                                             10     2      8     287
                                              0 COMMON    10     2      8
 ---------------------------------------------------------------------------------
 (3) ___lldiv                                             14     6      8     290
                                              0 COMMON    14     6      8
 ---------------------------------------------------------------------------------
 (1) _LCD_Init                                             2     2      0     176
                                              4 COMMON     2     2      0
                   _LCD_DisplayClear
                      _LCD_WriteData
 ---------------------------------------------------------------------------------
 (2) _LCD_DisplayClear                                     1     1      0      88
                                              3 COMMON     1     1      0
                      _LCD_WriteData
 ---------------------------------------------------------------------------------
 (1) _LCD_CursorPosition                                   3     2      1     196
                                              3 COMMON     3     2      1
                      _LCD_WriteData
 ---------------------------------------------------------------------------------
 (6) _LCD_WriteData                                        3     3      0      88
                                              0 COMMON     3     3      0
 ---------------------------------------------------------------------------------
 (1) _EEPROM_MultiRead                                     7     5      2     358
                                              4 COMMON     7     5      2
                        _eeprom_read
 ---------------------------------------------------------------------------------
 (2) _eeprom_read                                          4     4      0      22
                                              0 COMMON     4     4      0
 ---------------------------------------------------------------------------------
 (1) _Basic_Init                                           0     0      0       0
 ---------------------------------------------------------------------------------
 Estimated maximum stack depth 6
 ---------------------------------------------------------------------------------

 Call Graph Graphs:

 _main (ROOT)
   _Basic_Init
   _EEPROM_MultiRead
     _eeprom_read
   _LCD_CursorPosition
     _LCD_WriteData
   _LCD_Init
     _LCD_DisplayClear
       _LCD_WriteData
     _LCD_WriteData
   _xprintf
     _xvprintf
       ___lldiv
       ___llmod
       ___wmul
       _xputc
         Absolute function(Fake) *
         _LCD_Put *
           _LCD_WriteData
       _xputs
         _xputc
           Absolute function(Fake) *
           _LCD_Put *
             _LCD_WriteData

 Address spaces:
Name               Size   Autos  Total    Cost      Usage
BIGRAM             170      0       0       0        0.0%
EEDATA             100      0       0       0        0.0%
NULL                 0      0       0       0        0.0%
CODE                 0      0       0       0        0.0%
BITCOMMON            E      0       0       1        0.0%
BITSFR0              0      0       0       1        0.0%
SFR0                 0      0       0       1        0.0%
COMMON               E      E       E       2      100.0%
BITSFR1              0      0       0       2        0.0%
SFR1                 0      0       0       2        0.0%
BITSFR2              0      0       0       3        0.0%
SFR2                 0      0       0       3        0.0%
STACK                0      0       0       3        0.0%
BITSFR3              0      0       0       4        0.0%
SFR3                 0      0       0       4        0.0%
ABS                  0      0      5D       4        0.0%
BITBANK0            50      0       0       5        0.0%
BITSFR4              0      0       0       5        0.0%
SFR4                 0      0       0       5        0.0%
BANK0               50     45      4F       6       98.8%
BITSFR5              0      0       0       6        0.0%
SFR5                 0      0       0       6        0.0%
BITBANK1            50      0       0       7        0.0%
BITSFR6              0      0       0       7        0.0%
SFR6                 0      0       0       7        0.0%
BANK1               50      0       0       8        0.0%
BITSFR7              0      0       0       8        0.0%
SFR7                 0      0       0       8        0.0%
BITBANK2            50      0       0       9        0.0%
BITSFR8              0      0       0       9        0.0%
SFR8                 0      0       0       9        0.0%
BANK2               50      0       0      10        0.0%
BITSFR9              0      0       0      10        0.0%
SFR9                 0      0       0      10        0.0%
BITBANK3            50      0       0      11        0.0%
BITSFR10             0      0       0      11        0.0%
SFR10                0      0       0      11        0.0%
BANK3               50      0       0      12        0.0%
BITSFR11             0      0       0      12        0.0%
SFR11                0      0       0      12        0.0%
BITBANK4            30      0       0      13        0.0%
BITSFR12             0      0       0      13        0.0%
SFR12                0      0       0      13        0.0%
BANK4               30      0       0      14        0.0%
BITSFR13             0      0       0      14        0.0%
SFR13                0      0       0      14        0.0%
BITSFR14             0      0       0      15        0.0%
SFR14                0      0       0      15        0.0%
DATA                 0      0      5D      15        0.0%
BITSFR15             0      0       0      16        0.0%
SFR15                0      0       0      16        0.0%
BITSFR16             0      0       0      17        0.0%
SFR16                0      0       0      17        0.0%
BITSFR17             0      0       0      18        0.0%
SFR17                0      0       0      18        0.0%
BITSFR18             0      0       0      19        0.0%
SFR18                0      0       0      19        0.0%
BITSFR19             0      0       0      20        0.0%
SFR19                0      0       0      20        0.0%
BITSFR20             0      0       0      21        0.0%
SFR20                0      0       0      21        0.0%
BITSFR21             0      0       0      22        0.0%
SFR21                0      0       0      22        0.0%
BITSFR22             0      0       0      23        0.0%
SFR22                0      0       0      23        0.0%
BITSFR23             0      0       0      24        0.0%
SFR23                0      0       0      24        0.0%
BITSFR24             0      0       0      25        0.0%
SFR24                0      0       0      25        0.0%
BITSFR25             0      0       0      26        0.0%
SFR25                0      0       0      26        0.0%
BITSFR26             0      0       0      27        0.0%
SFR26                0      0       0      27        0.0%
BITSFR27             0      0       0      28        0.0%
SFR27                0      0       0      28        0.0%
BITSFR28             0      0       0      29        0.0%
SFR28                0      0       0      29        0.0%
BITSFR29             0      0       0      30        0.0%
SFR29                0      0       0      30        0.0%
BITSFR30             0      0       0      31        0.0%
SFR30                0      0       0      31        0.0%
BITSFR31             0      0       0      32        0.0%
SFR31                0      0       0      32        0.0%


Microchip Technology PIC Macro Assembler V1.41 build -162212810 
Symbol Table                                                                                   Thu Mar  2 14:04:58 2017

                __CFG_CP$OFF 0000                           _RD 0CA8                           _WR 0CA9  
        ___wmul@multiplicand 0072                          l132 05C0                          l410 03D9  
                        l147 063C                          l165 06D7                          l188 078E  
                        l298 03BA                          _RA3 0063                          _RA4 0064  
               __CFG_CPD$OFF 0000                          u925 044A                          u985 03DA  
                        u995 03DF                 __CFG_BORV$LO 0000                          wreg 0009  
                 _Basic_Init 038F                 __CFG_LVP$OFF 0000              __end_of_LCD_Put 035D  
                       l1500 0484                         l1502 0492                         l1510 04B5  
                       l1600 0688                         l1506 04AA                         l1610 06B1  
                       l1444 0434                         l1436 0424                         l1612 06B3  
                       l1604 068C                         l1620 06BF                         l1454 037D  
                       l1630 070F                         l1614 06B5                         l1606 06A1  
                       l1550 05EE                         l1640 0732                         l1632 071F  
                       l1616 06BA                         l1608 06AE                         l1560 0605  
                       l1536 05D9                         l1490 054E                         l1458 03D3  
                       l1650 076C                         l1626 06F1                         l1570 0634  
                       l1810 04D8                         l1476 0515                         l1628 0706  
                       l1486 0543                         l1478 0523                         l1654 0774  
                       l1638 0730                         l1566 062C                         l1558 0602  
                       l1680 07C3                         l1672 07A4                         l1592 0664  
                       l1674 07AD                         l1666 079C                         l1594 0672  
                       l1586 0657                         l1578 0649                         l1756 03EE  
                       l1684 07D5                         l1676 07B1                         l1596 0676  
                       l1686 07D9         EEPROM_MultiRead@addr 0075                         STR_1 081A  
               __CFG_WDTE$ON 0000                         STR_2 081E                         STR_3 0800  
                       STR_4 080E                         STR_5 0814                         STR_6 0807  
                       u1025 0518                         u1115 04A0                         u1045 0524  
                       u1125 04AB                         u1055 0538                         u1065 0544  
                       u1405 07C1                         u1095 0487                         u1425 07E7  
                       u1530 04CC                         u1435 03AA                         u1275 0686  
                       u1445 0400                         u1285 069A                         u1707 059E  
                       u1717 0366                         u1727 03B5                         u1737 0444  
                       u1677 055F                         u1687 0577                         u1697 058A  
       EEPROM_MultiRead@size 0074                  main@readdat 005F                 __CFG_WRT$OFF 0000  
                       _main 04BE                         fsr0h 0005                         fsr1h 0007  
                       indf0 0000                         fsr0l 0004                         indf1 0001  
                       fsr1l 0006                         btemp 007E                __CFG_BOREN$ON 0000  
                       start 0002                __CFG_IESO$OFF 0000                _LCD_WriteData 0442  
              __CFG_MCLRE$ON 0000     __end_of_LCD_DisplayClear 036C             __end_of_LCD_Init 05C0  
              __CFG_PLLEN$ON 0000                  LCD_Put@word 0073                        ?_main 0070  
                      _EEADR 0191        EEPROM_MultiRead@pData 0079              __end_of___lldiv 0557  
            __end_of___llmod 04BE                        _PORTA 000C                        _PORTB 000D  
                      _TRISA 008C                        _TRISB 008D                __CFG_PWRTE$ON 0000  
             __CFG_FCMEN$OFF 0000                        main@i 0064                        _xputc 0415  
                      _xputs 037C                        pclath 000A                        status 0003  
                      wtemp0 007E              __end_of_xprintf 037C           _LCD_CursorPosition 03A4  
             ?_LCD_WriteData 0070            EEPROM_MultiRead@i 007A              __initialization 07EA  
               __end_of_main 0505          ?_LCD_CursorPosition 0073                       ??_main 0058  
                  ??_LCD_Put 0074                  ?_Basic_Init 0070             ___llmod@dividend 0074  
                     _EEDATA 0193                       _EECON1 0195         ??_LCD_CursorPosition 0074  
                     _ANSELA 018C                       _ANSELB 018D                       ?_xputc 0070  
                     ?_xputs 0070                       _OSCCON 0099     __end_of_EEPROM_MultiRead 0415  
       __size_of_eeprom_read 0018                       ___wmul 03D1                    ??___lldiv 0078  
                  ??___llmod 0078                       _outptr 0069                       xputc@c 0075  
                  ??_xprintf 0056      __end_of__initialization 07FD                    ?_LCD_Init 0070  
            eeprom_read@addr 0073              ??_LCD_WriteData 0070             __end_of_xvprintf 07EA  
             __pcstackCOMMON 0070          __size_of_Basic_Init 0015                 __pidataBANK0 0352  
              __end_of_xputc 0442                __end_of_xputs 038F                      ??_xputc 0074  
                    ??_xputs 0076                   __pbssBANK0 0065                   ??_LCD_Init 0074  
                 __pmaintext 04BE                      ?___wmul 0070            ?_LCD_DisplayClear 0070  
                    _APFCON0 011D                      _APFCON1 011E           ??_LCD_DisplayClear 0073  
                    _LCD_Put 0357                 _xvprintf$186 0037                 _xvprintf$187 003B  
               _xvprintf$188 003D                      ___lldiv 0505              __size_of___wmul 001B  
                    ___llmod 047C              __CFG_STVREN$OFF 0000                      __ptext1 036C  
                    __ptext2 05C0                      __ptext3 037C                      __ptext4 0415  
                    __ptext5 0357                      __ptext6 03D1                      __ptext7 047C  
                    __ptext8 0505                      __ptext9 0557                    ?_xvprintf 0020  
               ??_Basic_Init 0070         end_of_initialization 07FD                      _xprintf 036C  
          ?_EEPROM_MultiRead 0074              ___lldiv@divisor 0070              ___lldiv@counter 007D  
         ??_EEPROM_MultiRead 0076           __end_of_Basic_Init 03A4                 __pstringtext 0800  
           __CFG_FOSC$INTOSC 0000                   ??_xvprintf 0023  __size_of_LCD_CursorPosition 0015  
              ??_eeprom_read 0070                   main@sample 005A            __size_of_LCD_Init 0069  
             __end_of___wmul 03EC          start_initialization 07EA              ___llmod@divisor 0070  
            ___llmod@counter 0079         LCD_CursorPosition@tx 0075         LCD_CursorPosition@ty 0073  
      __end_of_LCD_WriteData 047C                     ??___wmul 0074          __end_of_eeprom_read 03D1  
                __pdataBANK0 006A                     ?_LCD_Put 0073                    ___latbits 0001  
              __pcstackBANK0 0020    __size_of_LCD_DisplayClear 000F                     ?___lldiv 0070  
                   ?___llmod 0070            __size_of_xvprintf 022A                     ?_xprintf 0050  
             __size_of_xputc 002D               __size_of_xputs 0013                     _LCD_Init 0557  
             ___wmul@product 0074                  _eeprom_read 03B9                    main@F2994 006A  
  __size_of_EEPROM_MultiRead 0029            ___wmul@multiplier 0070                    _xfunc_out 0067  
           __size_of_LCD_Put 0006             __size_of___lldiv 0052             __size_of___llmod 0042  
         LCD_WriteData@point 0072   __end_of_LCD_CursorPosition 03B9                     __ptext10 035D  
                   __ptext11 03A4                     __ptext12 0442                     __ptext13 03EC  
                   __ptext14 03B9                     __ptext15 038F             _LCD_DisplayClear 035D  
           __size_of_xprintf 0010                __size_of_main 0047                     _xfunc_in 0065  
                   _xvprintf 05C0                   xprintf@arp 0057                   xprintf@fmt 0050  
           ___lldiv@dividend 0074            __CFG_CLKOUTEN$OFF 0000                  xvprintf@arp 0022  
                xvprintf@fmt 0020             _EEPROM_MultiRead 03EC             ___lldiv@quotient 0079  
     __size_of_LCD_WriteData 003A                     xputs@str 0077                    xvprintf@c 004F  
                  xvprintf@d 004E                    xvprintf@f 004A                    xvprintf@i 004C  
                  xvprintf@j 0044                    xvprintf@p 003F                    xvprintf@r 0040  
                  xvprintf@s 0027                    xvprintf@v 0046                    xvprintf@w 0042  
               ?_eeprom_read 0070  
